ARM GAS  C:\Users\ksoneda\AppData\Local\Temp\ccfQ9eBM.s 			page 1


   1              		.cpu cortex-m0
   2              		.fpu softvfp
   3              		.eabi_attribute 20, 1
   4              		.eabi_attribute 21, 1
   5              		.eabi_attribute 23, 3
   6              		.eabi_attribute 24, 1
   7              		.eabi_attribute 25, 1
   8              		.eabi_attribute 26, 1
   9              		.eabi_attribute 30, 6
  10              		.eabi_attribute 34, 0
  11              		.eabi_attribute 18, 4
  12              		.code	16
  13              		.file	"AmphenolDust.c"
  14              		.text
  15              	.Ltext0:
  16              		.cfi_sections	.debug_frame
  17              		.global	SPdata
  18              		.bss
  19              		.align	2
  20              		.type	SPdata, %object
  21              		.size	SPdata, 4
  22              	SPdata:
  23 0000 00000000 		.space	4
  24              		.global	LPdata
  25              		.align	2
  26              		.type	LPdata, %object
  27              		.size	LPdata, 4
  28              	LPdata:
  29 0004 00000000 		.space	4
  30              		.section	.text.DustSamplingCycle,"ax",%progbits
  31              		.align	2
  32              		.global	DustSamplingCycle
  33              		.code	16
  34              		.thumb_func
  35              		.type	DustSamplingCycle, %function
  36              	DustSamplingCycle:
  37              	.LFB35:
  38              		.file 1 ".\\AmphenolDust.c"
   1:.\AmphenolDust.c **** /* ========================================
   2:.\AmphenolDust.c ****  *
   3:.\AmphenolDust.c ****  * Copyright YOUR COMPANY, THE YEAR
   4:.\AmphenolDust.c ****  * All Rights Reserved
   5:.\AmphenolDust.c ****  * UNPUBLISHED, LICENSED SOFTWARE.
   6:.\AmphenolDust.c ****  *
   7:.\AmphenolDust.c ****  * CONFIDENTIAL AND PROPRIETARY INFORMATION
   8:.\AmphenolDust.c ****  * WHICH IS THE PROPERTY OF your company.
   9:.\AmphenolDust.c ****  *
  10:.\AmphenolDust.c ****  * by Keith Soneda
  11:.\AmphenolDust.c ****  * UC Davis - EEC136AB - Firmware for Air Quality Monitor - PSOC 4 BLE revision - March 2015
  12:.\AmphenolDust.c ****  * Overview: Read Cycle for sampling dust levels.
  13:.\AmphenolDust.c ****  * ========================================
  14:.\AmphenolDust.c **** */
  15:.\AmphenolDust.c **** 
  16:.\AmphenolDust.c **** #include "main.h"
  17:.\AmphenolDust.c **** 
  18:.\AmphenolDust.c **** uint32 SPdata=0;//stores Low pulse time for Small Particle Dust
  19:.\AmphenolDust.c **** uint32 LPdata=0;//stores low pulse time for large particle dust
ARM GAS  C:\Users\ksoneda\AppData\Local\Temp\ccfQ9eBM.s 			page 2


  20:.\AmphenolDust.c **** 
  21:.\AmphenolDust.c **** #ifdef AMPHENOL_DUST_H
  22:.\AmphenolDust.c **** 
  23:.\AmphenolDust.c **** 
  24:.\AmphenolDust.c **** //function for accumulating low pulse time during read cycle. (non ISR method)
  25:.\AmphenolDust.c **** //This function starts a blocking 30 second window in which the "Low pulse time"
  26:.\AmphenolDust.c **** //is measured from the two PWM Dust Sensor inputs.
  27:.\AmphenolDust.c **** //uint8 DustSamplingCycle(uint32 *array)
  28:.\AmphenolDust.c **** uint8 DustSamplingCycle(void)
  29:.\AmphenolDust.c **** {
  39              		.loc 1 29 0
  40              		.cfi_startproc
  41 0000 B0B5     		push	{r4, r5, r7, lr}
  42              		.cfi_def_cfa_offset 16
  43              		.cfi_offset 4, -16
  44              		.cfi_offset 5, -12
  45              		.cfi_offset 7, -8
  46              		.cfi_offset 14, -4
  47 0002 82B0     		sub	sp, sp, #8
  48              		.cfi_def_cfa_offset 24
  49 0004 00AF     		add	r7, sp, #0
  50              		.cfi_def_cfa_register 7
  30:.\AmphenolDust.c **** /*----------- START: Start DustSamplingCycle() Code --------------*/	
  31:.\AmphenolDust.c **** 	//Start Variables
  32:.\AmphenolDust.c **** 	SPdata = 0u;
  51              		.loc 1 32 0
  52 0006 6C4B     		ldr	r3, .L16
  53 0008 0022     		mov	r2, #0
  54 000a 1A60     		str	r2, [r3]
  33:.\AmphenolDust.c **** 	LPdata = 0u;
  55              		.loc 1 33 0
  56 000c 6B4B     		ldr	r3, .L16+4
  57 000e 0022     		mov	r2, #0
  58 0010 1A60     		str	r2, [r3]
  34:.\AmphenolDust.c **** 	uint32 currentCount = 0u;//for sampling window
  59              		.loc 1 34 0
  60 0012 0023     		mov	r3, #0
  61 0014 7B60     		str	r3, [r7, #4]
  35:.\AmphenolDust.c **** 
  36:.\AmphenolDust.c **** 	//Reset Counters
  37:.\AmphenolDust.c **** 	CounterLP1_WriteCounter(currentCount);
  62              		.loc 1 37 0
  63 0016 7B68     		ldr	r3, [r7, #4]
  64 0018 181C     		mov	r0, r3
  65 001a FFF7FEFF 		bl	CounterLP1_WriteCounter
  38:.\AmphenolDust.c **** 	CounterLP2_WriteCounter(currentCount);	
  66              		.loc 1 38 0
  67 001e 7B68     		ldr	r3, [r7, #4]
  68 0020 181C     		mov	r0, r3
  69 0022 FFF7FEFF 		bl	CounterLP2_WriteCounter
  39:.\AmphenolDust.c **** 	
  40:.\AmphenolDust.c **** 	/* Start Components */
  41:.\AmphenolDust.c **** 	Clock_Counter_Start();
  70              		.loc 1 41 0
  71 0026 FF20     		mov	r0, #255
  72 0028 FFF7FEFF 		bl	Clock_Counter_StartEx
  42:.\AmphenolDust.c **** 	CounterLP1_Start();
ARM GAS  C:\Users\ksoneda\AppData\Local\Temp\ccfQ9eBM.s 			page 3


  73              		.loc 1 42 0
  74 002c FFF7FEFF 		bl	CounterLP1_Start
  43:.\AmphenolDust.c **** 	CounterLP2_Start();
  75              		.loc 1 43 0
  76 0030 FFF7FEFF 		bl	CounterLP2_Start
  44:.\AmphenolDust.c **** 	CounterSP1_Start();	
  77              		.loc 1 44 0
  78 0034 FFF7FEFF 		bl	CounterSP1_Start
  45:.\AmphenolDust.c **** 	CounterSP2_Start();
  79              		.loc 1 45 0
  80 0038 FFF7FEFF 		bl	CounterSP2_Start
  46:.\AmphenolDust.c **** 	
  47:.\AmphenolDust.c **** 	
  48:.\AmphenolDust.c **** 	CounterLP1_TriggerCommand((CounterLP1_MASK|CounterLP2_MASK),CounterLP1_CMD_STOP);
  81              		.loc 1 48 0
  82 003c 0920     		mov	r0, #9
  83 003e 1021     		mov	r1, #16
  84 0040 FFF7FEFF 		bl	CounterLP1_TriggerCommand
  49:.\AmphenolDust.c **** 	CounterLP2_WriteCounter(0u);
  85              		.loc 1 49 0
  86 0044 0020     		mov	r0, #0
  87 0046 FFF7FEFF 		bl	CounterLP2_WriteCounter
  50:.\AmphenolDust.c **** 	CounterLP1_WriteCounter(0u);
  88              		.loc 1 50 0
  89 004a 0020     		mov	r0, #0
  90 004c FFF7FEFF 		bl	CounterLP1_WriteCounter
  51:.\AmphenolDust.c **** 	
  52:.\AmphenolDust.c **** 	while(CounterLP1_ReadCounter()>0u){
  91              		.loc 1 52 0
  92 0050 C046     		mov	r8, r8
  93              	.L2:
  94              		.loc 1 52 0 is_stmt 0 discriminator 1
  95 0052 FFF7FEFF 		bl	CounterLP1_ReadCounter
  96 0056 031C     		mov	r3, r0
  97 0058 002B     		cmp	r3, #0
  98 005a FAD1     		bne	.L2
  53:.\AmphenolDust.c **** 		//RED_Write(~RED_Read());
  54:.\AmphenolDust.c **** 		//CyDelay(150);
  55:.\AmphenolDust.c **** 	}
  56:.\AmphenolDust.c **** 	
  57:.\AmphenolDust.c **** 	//Clear Both capture buffers so if line is LOW during first loop, the residual captures are not la
  58:.\AmphenolDust.c **** 	CounterLP1_TriggerCommand((CounterLP1_MASK|CounterLP2_MASK),CounterLP1_CMD_CAPTURE);
  99              		.loc 1 58 0 is_stmt 1
 100 005c 0920     		mov	r0, #9
 101 005e 0021     		mov	r1, #0
 102 0060 FFF7FEFF 		bl	CounterLP1_TriggerCommand
  59:.\AmphenolDust.c **** 	CounterLP1_TriggerCommand((CounterLP1_MASK|CounterLP2_MASK),CounterLP1_CMD_CAPTURE);
 103              		.loc 1 59 0
 104 0064 0920     		mov	r0, #9
 105 0066 0021     		mov	r1, #0
 106 0068 FFF7FEFF 		bl	CounterLP1_TriggerCommand
  60:.\AmphenolDust.c **** 	CounterLP1_TriggerCommand((CounterLP1_MASK|CounterLP2_MASK),CounterLP1_CMD_RELOAD);
 107              		.loc 1 60 0
 108 006c 0920     		mov	r0, #9
 109 006e 0821     		mov	r1, #8
 110 0070 FFF7FEFF 		bl	CounterLP1_TriggerCommand
  61:.\AmphenolDust.c **** 	CounterLP1_TriggerCommand((CounterLP1_MASK|CounterLP2_MASK),CounterLP1_CMD_START);
ARM GAS  C:\Users\ksoneda\AppData\Local\Temp\ccfQ9eBM.s 			page 4


 111              		.loc 1 61 0
 112 0074 0920     		mov	r0, #9
 113 0076 1821     		mov	r1, #24
 114 0078 FFF7FEFF 		bl	CounterLP1_TriggerCommand
  62:.\AmphenolDust.c **** 	
  63:.\AmphenolDust.c **** 	uint8 spFlag = ON_FLAG;
 115              		.loc 1 63 0
 116 007c FB1C     		add	r3, r7, #3
 117 007e 0122     		mov	r2, #1
 118 0080 1A70     		strb	r2, [r3]
  64:.\AmphenolDust.c **** 	uint8 lpFlag = ON_FLAG;
 119              		.loc 1 64 0
 120 0082 BB1C     		add	r3, r7, #2
 121 0084 0122     		mov	r2, #1
 122 0086 1A70     		strb	r2, [r3]
  65:.\AmphenolDust.c **** 
  66:.\AmphenolDust.c **** 	uint32 lastLP;//1
  67:.\AmphenolDust.c **** /*----------- END: Start DustSamplingCycle() Code --------------*/	
  68:.\AmphenolDust.c **** 		
  69:.\AmphenolDust.c **** /*----------- START: Loop DustSamplingCycle() Code --------------*/
  70:.\AmphenolDust.c **** 	//while(currentCount<SAMPLING_WINDOW_COUNT)
  71:.\AmphenolDust.c **** 	while(currentCount<(SAMPLING_WINDOW_COUNT/2))//sampling duration reduced for testing
 123              		.loc 1 71 0
 124 0088 53E0     		b	.L3
 125              	.L10:
  72:.\AmphenolDust.c **** 	{	
  73:.\AmphenolDust.c **** 		//SP handling
  74:.\AmphenolDust.c **** 		if(Pin_SP_Read()==OFF_FLAG)
 126              		.loc 1 74 0
 127 008a FFF7FEFF 		bl	Pin_SP_Read
 128 008e 031C     		mov	r3, r0
 129 0090 002B     		cmp	r3, #0
 130 0092 07D1     		bne	.L4
  75:.\AmphenolDust.c **** 		{
  76:.\AmphenolDust.c **** 			if(spFlag)
 131              		.loc 1 76 0
 132 0094 FB1C     		add	r3, r7, #3
 133 0096 1B78     		ldrb	r3, [r3]
 134 0098 002B     		cmp	r3, #0
 135 009a 17D0     		beq	.L6
  77:.\AmphenolDust.c **** 			{
  78:.\AmphenolDust.c **** 				spFlag = OFF_FLAG;
 136              		.loc 1 78 0
 137 009c FB1C     		add	r3, r7, #3
 138 009e 0022     		mov	r2, #0
 139 00a0 1A70     		strb	r2, [r3]
 140 00a2 13E0     		b	.L6
 141              	.L4:
  79:.\AmphenolDust.c **** 			}
  80:.\AmphenolDust.c **** 		}
  81:.\AmphenolDust.c **** 		else
  82:.\AmphenolDust.c **** 		{
  83:.\AmphenolDust.c **** 			if(spFlag==OFF_FLAG)//rising edge
 142              		.loc 1 83 0
 143 00a4 FB1C     		add	r3, r7, #3
 144 00a6 1B78     		ldrb	r3, [r3]
 145 00a8 002B     		cmp	r3, #0
ARM GAS  C:\Users\ksoneda\AppData\Local\Temp\ccfQ9eBM.s 			page 5


 146 00aa 0FD1     		bne	.L6
  84:.\AmphenolDust.c **** 			{
  85:.\AmphenolDust.c **** 				SPdata += CounterSP1_ReadCapture()+(CounterSP2_ReadCapture()<<16u);
 147              		.loc 1 85 0
 148 00ac FFF7FEFF 		bl	CounterSP1_ReadCapture
 149 00b0 041C     		mov	r4, r0
 150 00b2 FFF7FEFF 		bl	CounterSP2_ReadCapture
 151 00b6 031C     		mov	r3, r0
 152 00b8 1B04     		lsl	r3, r3, #16
 153 00ba E218     		add	r2, r4, r3
 154 00bc 3E4B     		ldr	r3, .L16
 155 00be 1B68     		ldr	r3, [r3]
 156 00c0 D218     		add	r2, r2, r3
 157 00c2 3D4B     		ldr	r3, .L16
 158 00c4 1A60     		str	r2, [r3]
  86:.\AmphenolDust.c **** 				spFlag = ON_FLAG;
 159              		.loc 1 86 0
 160 00c6 FB1C     		add	r3, r7, #3
 161 00c8 0122     		mov	r2, #1
 162 00ca 1A70     		strb	r2, [r3]
 163              	.L6:
  87:.\AmphenolDust.c **** 			}
  88:.\AmphenolDust.c **** 		}
  89:.\AmphenolDust.c **** 		
  90:.\AmphenolDust.c **** 		//LP handling & window handling
  91:.\AmphenolDust.c **** 		if(Pin_LP_Read()==OFF_FLAG)
 164              		.loc 1 91 0
 165 00cc FFF7FEFF 		bl	Pin_LP_Read
 166 00d0 031C     		mov	r3, r0
 167 00d2 002B     		cmp	r3, #0
 168 00d4 07D1     		bne	.L7
  92:.\AmphenolDust.c **** 		{
  93:.\AmphenolDust.c **** 			if(lpFlag)
 169              		.loc 1 93 0
 170 00d6 BB1C     		add	r3, r7, #2
 171 00d8 1B78     		ldrb	r3, [r3]
 172 00da 002B     		cmp	r3, #0
 173 00dc 20D0     		beq	.L9
  94:.\AmphenolDust.c **** 			{
  95:.\AmphenolDust.c **** 				lpFlag = OFF_FLAG;//set flag to signal that rising edge has not yet occured					
 174              		.loc 1 95 0
 175 00de BB1C     		add	r3, r7, #2
 176 00e0 0022     		mov	r2, #0
 177 00e2 1A70     		strb	r2, [r3]
 178 00e4 1CE0     		b	.L9
 179              	.L7:
  96:.\AmphenolDust.c **** 			}
  97:.\AmphenolDust.c **** 
  98:.\AmphenolDust.c **** 		}
  99:.\AmphenolDust.c **** 		else
 100:.\AmphenolDust.c **** 		{
 101:.\AmphenolDust.c **** 			if(lpFlag==OFF_FLAG)
 180              		.loc 1 101 0
 181 00e6 BB1C     		add	r3, r7, #2
 182 00e8 1B78     		ldrb	r3, [r3]
 183 00ea 002B     		cmp	r3, #0
 184 00ec 18D1     		bne	.L9
ARM GAS  C:\Users\ksoneda\AppData\Local\Temp\ccfQ9eBM.s 			page 6


 102:.\AmphenolDust.c **** 			{
 103:.\AmphenolDust.c **** 				lpFlag = ON_FLAG;
 185              		.loc 1 103 0
 186 00ee BB1C     		add	r3, r7, #2
 187 00f0 0122     		mov	r2, #1
 188 00f2 1A70     		strb	r2, [r3]
 104:.\AmphenolDust.c **** 				LPdata += (CounterLP1_ReadCapture()-CounterLP1_ReadCaptureBuf()) + ((CounterLP2_ReadCapture()-C
 189              		.loc 1 104 0
 190 00f4 FFF7FEFF 		bl	CounterLP1_ReadCapture
 191 00f8 041C     		mov	r4, r0
 192 00fa FFF7FEFF 		bl	CounterLP1_ReadCaptureBuf
 193 00fe 031C     		mov	r3, r0
 194 0100 E41A     		sub	r4, r4, r3
 195 0102 FFF7FEFF 		bl	CounterLP2_ReadCapture
 196 0106 051C     		mov	r5, r0
 197 0108 FFF7FEFF 		bl	CounterLP2_ReadCaptureBuf
 198 010c 031C     		mov	r3, r0
 199 010e EB1A     		sub	r3, r5, r3
 200 0110 2B4A     		ldr	r2, .L16+8
 201 0112 5343     		mul	r3, r2
 202 0114 E218     		add	r2, r4, r3
 203 0116 294B     		ldr	r3, .L16+4
 204 0118 1B68     		ldr	r3, [r3]
 205 011a D218     		add	r2, r2, r3
 206 011c 274B     		ldr	r3, .L16+4
 207 011e 1A60     		str	r2, [r3]
 208              	.L9:
 105:.\AmphenolDust.c **** 			}
 106:.\AmphenolDust.c **** 
 107:.\AmphenolDust.c **** 		}
 108:.\AmphenolDust.c **** 		//Check current count to see if 30 second window has expired.
 109:.\AmphenolDust.c **** 		currentCount = CounterLP1_ReadCounter()+(CounterLP2_ReadCounter()<<16u);
 209              		.loc 1 109 0
 210 0120 FFF7FEFF 		bl	CounterLP1_ReadCounter
 211 0124 041C     		mov	r4, r0
 212 0126 FFF7FEFF 		bl	CounterLP2_ReadCounter
 213 012a 031C     		mov	r3, r0
 214 012c 1B04     		lsl	r3, r3, #16
 215 012e E318     		add	r3, r4, r3
 216 0130 7B60     		str	r3, [r7, #4]
 217              	.L3:
  71:.\AmphenolDust.c **** 	while(currentCount<(SAMPLING_WINDOW_COUNT/2))//sampling duration reduced for testing
 218              		.loc 1 71 0 discriminator 1
 219 0132 7A68     		ldr	r2, [r7, #4]
 220 0134 234B     		ldr	r3, .L16+12
 221 0136 9A42     		cmp	r2, r3
 222 0138 A7D9     		bls	.L10
 110:.\AmphenolDust.c **** 		
 111:.\AmphenolDust.c **** 	}//end of while loop
 112:.\AmphenolDust.c **** 
 113:.\AmphenolDust.c **** 	// code for handing error values
 114:.\AmphenolDust.c **** 	if(SPdata > SAMPLING_WINDOW_COUNT)
 223              		.loc 1 114 0
 224 013a 1F4B     		ldr	r3, .L16
 225 013c 1A68     		ldr	r2, [r3]
 226 013e 224B     		ldr	r3, .L16+16
 227 0140 9A42     		cmp	r2, r3
ARM GAS  C:\Users\ksoneda\AppData\Local\Temp\ccfQ9eBM.s 			page 7


 228 0142 02D9     		bls	.L11
 115:.\AmphenolDust.c **** 	{
 116:.\AmphenolDust.c **** 		//error code
 117:.\AmphenolDust.c **** 		SPdata = 360000000u;
 229              		.loc 1 117 0
 230 0144 1C4B     		ldr	r3, .L16
 231 0146 204A     		ldr	r2, .L16+16
 232 0148 1A60     		str	r2, [r3]
 233              	.L11:
 118:.\AmphenolDust.c **** 	}
 119:.\AmphenolDust.c **** 	if(LPdata > SAMPLING_WINDOW_COUNT)
 234              		.loc 1 119 0
 235 014a 1C4B     		ldr	r3, .L16+4
 236 014c 1A68     		ldr	r2, [r3]
 237 014e 1E4B     		ldr	r3, .L16+16
 238 0150 9A42     		cmp	r2, r3
 239 0152 02D9     		bls	.L12
 120:.\AmphenolDust.c **** 	{
 121:.\AmphenolDust.c **** 		//error code
 122:.\AmphenolDust.c **** 		LPdata = 360000000u;
 240              		.loc 1 122 0
 241 0154 194B     		ldr	r3, .L16+4
 242 0156 1C4A     		ldr	r2, .L16+16
 243 0158 1A60     		str	r2, [r3]
 244              	.L12:
 123:.\AmphenolDust.c **** 	}
 124:.\AmphenolDust.c **** 	
 125:.\AmphenolDust.c **** 	// code for handing error values
 126:.\AmphenolDust.c **** 	if(SPdata==0u)
 245              		.loc 1 126 0
 246 015a 174B     		ldr	r3, .L16
 247 015c 1B68     		ldr	r3, [r3]
 248 015e 002B     		cmp	r3, #0
 249 0160 02D1     		bne	.L13
 127:.\AmphenolDust.c **** 	{
 128:.\AmphenolDust.c **** 		SPdata = 1u;
 250              		.loc 1 128 0
 251 0162 154B     		ldr	r3, .L16
 252 0164 0122     		mov	r2, #1
 253 0166 1A60     		str	r2, [r3]
 254              	.L13:
 129:.\AmphenolDust.c **** 	}
 130:.\AmphenolDust.c **** 	if(LPdata == 0u)
 255              		.loc 1 130 0
 256 0168 144B     		ldr	r3, .L16+4
 257 016a 1B68     		ldr	r3, [r3]
 258 016c 002B     		cmp	r3, #0
 259 016e 02D1     		bne	.L14
 131:.\AmphenolDust.c **** 	{
 132:.\AmphenolDust.c **** 		LPdata = 1u;
 260              		.loc 1 132 0
 261 0170 124B     		ldr	r3, .L16+4
 262 0172 0122     		mov	r2, #1
 263 0174 1A60     		str	r2, [r3]
 264              	.L14:
 133:.\AmphenolDust.c **** 	}		
 134:.\AmphenolDust.c **** /*----------- END: Loop DustSamplingCycle() Code --------------*/	
ARM GAS  C:\Users\ksoneda\AppData\Local\Temp\ccfQ9eBM.s 			page 8


 135:.\AmphenolDust.c **** 
 136:.\AmphenolDust.c **** 	
 137:.\AmphenolDust.c **** /*----------- START: Stop DustSamplingCycle() Code --------------*/	
 138:.\AmphenolDust.c **** 	//Stop Variables
 139:.\AmphenolDust.c **** 
 140:.\AmphenolDust.c **** 	/* Stop Clocks */
 141:.\AmphenolDust.c **** 	CounterLP1_TriggerCommand((CounterLP1_MASK|CounterLP2_MASK),CounterLP1_CMD_STOP);
 265              		.loc 1 141 0
 266 0176 0920     		mov	r0, #9
 267 0178 1021     		mov	r1, #16
 268 017a FFF7FEFF 		bl	CounterLP1_TriggerCommand
 142:.\AmphenolDust.c **** 	
 143:.\AmphenolDust.c **** 	CounterLP1_WriteCounter(1u);
 269              		.loc 1 143 0
 270 017e 0120     		mov	r0, #1
 271 0180 FFF7FEFF 		bl	CounterLP1_WriteCounter
 144:.\AmphenolDust.c **** 	CounterLP2_WriteCounter(1u);
 272              		.loc 1 144 0
 273 0184 0120     		mov	r0, #1
 274 0186 FFF7FEFF 		bl	CounterLP2_WriteCounter
 145:.\AmphenolDust.c **** 	//Clear Both capture buffers so if line is LOW during first loop, the residual captures are not la
 146:.\AmphenolDust.c **** 	CounterLP1_TriggerCommand((CounterLP1_MASK|CounterLP2_MASK),CounterLP1_CMD_CAPTURE);
 275              		.loc 1 146 0
 276 018a 0920     		mov	r0, #9
 277 018c 0021     		mov	r1, #0
 278 018e FFF7FEFF 		bl	CounterLP1_TriggerCommand
 147:.\AmphenolDust.c **** 	CounterLP1_TriggerCommand((CounterLP1_MASK|CounterLP2_MASK),CounterLP1_CMD_CAPTURE);
 279              		.loc 1 147 0
 280 0192 0920     		mov	r0, #9
 281 0194 0021     		mov	r1, #0
 282 0196 FFF7FEFF 		bl	CounterLP1_TriggerCommand
 148:.\AmphenolDust.c **** 	
 149:.\AmphenolDust.c **** 	Clock_Counter_Stop();	
 283              		.loc 1 149 0
 284 019a FFF7FEFF 		bl	Clock_Counter_Stop
 150:.\AmphenolDust.c **** 	
 151:.\AmphenolDust.c **** 	//Stop Components
 152:.\AmphenolDust.c **** 	CounterLP1_Stop();
 285              		.loc 1 152 0
 286 019e FFF7FEFF 		bl	CounterLP1_Stop
 153:.\AmphenolDust.c **** 	CounterLP2_Stop();	
 287              		.loc 1 153 0
 288 01a2 FFF7FEFF 		bl	CounterLP2_Stop
 154:.\AmphenolDust.c **** 	CounterSP1_Stop();
 289              		.loc 1 154 0
 290 01a6 FFF7FEFF 		bl	CounterSP1_Stop
 155:.\AmphenolDust.c **** 	CounterSP2_Stop();	
 291              		.loc 1 155 0
 292 01aa FFF7FEFF 		bl	CounterSP2_Stop
 156:.\AmphenolDust.c **** 	
 157:.\AmphenolDust.c **** 	
 158:.\AmphenolDust.c **** 	//Store/return Values
 159:.\AmphenolDust.c **** 	//*(array) = SPdata;
 160:.\AmphenolDust.c **** 	// *(array+1u) = LPdata;
 161:.\AmphenolDust.c **** 	
 162:.\AmphenolDust.c **** 	#ifdef XBEE_IS_ENABLED
 163:.\AmphenolDust.c **** 		XBee_PutChar(3u);
ARM GAS  C:\Users\ksoneda\AppData\Local\Temp\ccfQ9eBM.s 			page 9


 164:.\AmphenolDust.c **** 		XBee_PutChar(SPdata);
 165:.\AmphenolDust.c **** 		XBee_PutChar(SPdata/255u);
 166:.\AmphenolDust.c **** 		XBee_PutChar(SPdata/65535u);
 167:.\AmphenolDust.c **** 		XBee_PutChar(SPdata/16777216u);
 168:.\AmphenolDust.c **** 		
 169:.\AmphenolDust.c **** 		XBee_PutChar(LPdata);
 170:.\AmphenolDust.c **** 		XBee_PutChar(LPdata/255u);
 171:.\AmphenolDust.c **** 		XBee_PutChar(LPdata/65535u);
 172:.\AmphenolDust.c **** 		XBee_PutChar(LPdata/16777216u);
 173:.\AmphenolDust.c **** //			XBee_PutChar(LPdata>>BYTE1_SHIFT);
 174:.\AmphenolDust.c **** //			XBee_PutChar(LPdata>>BYTE2_SHIFT);
 175:.\AmphenolDust.c **** //			XBee_PutChar(LPdata>>BYTE3_SHIFT);
 176:.\AmphenolDust.c **** 	#endif
 177:.\AmphenolDust.c **** 
 178:.\AmphenolDust.c **** 	return IDLE_STATE;
 293              		.loc 1 178 0
 294 01ae 0123     		mov	r3, #1
 179:.\AmphenolDust.c **** /*----------- END: Stop DustSamplingCycle() Code --------------*/	
 180:.\AmphenolDust.c **** }
 295              		.loc 1 180 0
 296 01b0 181C     		mov	r0, r3
 297 01b2 BD46     		mov	sp, r7
 298 01b4 02B0     		add	sp, sp, #8
 299              		@ sp needed
 300 01b6 B0BD     		pop	{r4, r5, r7, pc}
 301              	.L17:
 302              		.align	2
 303              	.L16:
 304 01b8 00000000 		.word	SPdata
 305 01bc 00000000 		.word	LPdata
 306 01c0 DCFF0000 		.word	65500
 307 01c4 FF94BA0A 		.word	179999999
 308 01c8 002A7515 		.word	360000000
 309              		.cfi_endproc
 310              	.LFE35:
 311              		.size	DustSamplingCycle, .-DustSamplingCycle
 312              		.text
 313              	.Letext0:
 314              		.file 2 ".\\Generated_Source\\PSoC4/cytypes.h"
 315              		.file 3 ".\\Generated_Source\\PSoC4/BLE_Stack.h"