ARM GAS  C:\Users\ksoneda\AppData\Local\Temp\ccgWYDQL.s 			page 1


   1              		.cpu cortex-m0
   2              		.fpu softvfp
   3              		.eabi_attribute 20, 1
   4              		.eabi_attribute 21, 1
   5              		.eabi_attribute 23, 3
   6              		.eabi_attribute 24, 1
   7              		.eabi_attribute 25, 1
   8              		.eabi_attribute 26, 1
   9              		.eabi_attribute 30, 6
  10              		.eabi_attribute 34, 0
  11              		.eabi_attribute 18, 4
  12              		.code	16
  13              		.file	"BLEApplications.c"
  14              		.text
  15              	.Ltext0:
  16              		.cfi_sections	.debug_frame
  17              		.global	deviceConnected
  18              		.bss
  19              		.type	deviceConnected, %object
  20              		.size	deviceConnected, 1
  21              	deviceConnected:
  22 0000 00       		.space	1
  23              		.global	startNotification
  24              		.type	startNotification, %object
  25              		.size	startNotification, 1
  26              	startNotification:
  27 0001 00       		.space	1
  28              		.comm	connectionHandle,2,4
  29              		.global	restartAdvertisement
  30              		.type	restartAdvertisement, %object
  31              		.size	restartAdvertisement, 1
  32              	restartAdvertisement:
  33 0002 00       		.space	1
  34              		.global	updateNotificationCCCAttribute
  35              		.type	updateNotificationCCCAttribute, %object
  36              		.size	updateNotificationCCCAttribute, 1
  37              	updateNotificationCCCAttribute:
  38 0003 00       		.space	1
  39              		.data
  40              		.type	isConnectionUpdateRequested, %object
  41              		.size	isConnectionUpdateRequested, 1
  42              	isConnectionUpdateRequested:
  43 0000 01       		.byte	1
  44 0001 000000   		.align	2
  45              		.type	ConnectionParam, %object
  46              		.size	ConnectionParam, 8
  47              	ConnectionParam:
  48 0004 3200     		.short	50
  49 0006 3C00     		.short	60
  50 0008 0000     		.short	0
  51 000a C800     		.short	200
  52              		.global	busyStatus
  53              		.bss
  54              		.type	busyStatus, %object
  55              		.size	busyStatus, 1
  56              	busyStatus:
  57 0004 00       		.space	1
ARM GAS  C:\Users\ksoneda\AppData\Local\Temp\ccgWYDQL.s 			page 2


  58              		.section	.text.CustomEventHandler,"ax",%progbits
  59              		.align	2
  60              		.global	CustomEventHandler
  61              		.code	16
  62              		.thumb_func
  63              		.type	CustomEventHandler, %function
  64              	CustomEventHandler:
  65              	.LFB35:
  66              		.file 1 ".\\BLEApplications.c"
   1:.\BLEApplications.c **** /* ========================================
   2:.\BLEApplications.c ****  *
   3:.\BLEApplications.c ****  * Copyright YOUR COMPANY, THE YEAR
   4:.\BLEApplications.c ****  * All Rights Reserved
   5:.\BLEApplications.c ****  * UNPUBLISHED, LICENSED SOFTWARE.
   6:.\BLEApplications.c ****  *
   7:.\BLEApplications.c ****  * CONFIDENTIAL AND PROPRIETARY INFORMATION
   8:.\BLEApplications.c ****  * WHICH IS THE PROPERTY OF your company.
   9:.\BLEApplications.c ****  *
  10:.\BLEApplications.c ****  * ========================================
  11:.\BLEApplications.c **** */
  12:.\BLEApplications.c **** #include "main.h"
  13:.\BLEApplications.c **** 
  14:.\BLEApplications.c **** /**************************Variable Declarations*****************************/
  15:.\BLEApplications.c **** /*'deviceConnected' flag is used by application to know whether a Central device  
  16:.\BLEApplications.c **** * has been connected. This is updated in BLE event callback */
  17:.\BLEApplications.c **** uint8 deviceConnected = FALSE;	
  18:.\BLEApplications.c **** 
  19:.\BLEApplications.c **** /*'startNotification' flag is set when the central device writes to CCC (Client 
  20:.\BLEApplications.c **** * Characteristic Configuration) of the CapSense proximity characteristic to 
  21:.\BLEApplications.c **** *enable notifications */
  22:.\BLEApplications.c **** uint8 startNotification = FALSE;		
  23:.\BLEApplications.c **** 
  24:.\BLEApplications.c **** /* 'connectionHandle' is handle to store BLE connection parameters */
  25:.\BLEApplications.c **** CYBLE_CONN_HANDLE_T  				connectionHandle;	
  26:.\BLEApplications.c **** 
  27:.\BLEApplications.c **** /* 'restartAdvertisement' flag provided the present state of power mode in firmware */
  28:.\BLEApplications.c **** uint8 restartAdvertisement = FALSE;
  29:.\BLEApplications.c **** 
  30:.\BLEApplications.c **** /* This flag is used to let application update the CCCD value for correct read 
  31:.\BLEApplications.c **** * operation by connected Central device */
  32:.\BLEApplications.c **** uint8 updateNotificationCCCAttribute = FALSE;
  33:.\BLEApplications.c **** 
  34:.\BLEApplications.c **** /* This flag is used to let application send a L2CAP connection update request
  35:.\BLEApplications.c **** * to Central device */
  36:.\BLEApplications.c **** static uint8 isConnectionUpdateRequested = TRUE;
  37:.\BLEApplications.c **** 
  38:.\BLEApplications.c **** /* Connection Parameter update values. This values are used by the BLE component
  39:.\BLEApplications.c **** * to update the connector parameter, including connection interval, to desired 
  40:.\BLEApplications.c **** * value */
  41:.\BLEApplications.c **** static CYBLE_GAP_CONN_UPDATE_PARAM_T ConnectionParam =
  42:.\BLEApplications.c **** {
  43:.\BLEApplications.c ****     CONN_PARAM_UPDATE_MIN_CONN_INTERVAL,  		      
  44:.\BLEApplications.c ****     CONN_PARAM_UPDATE_MAX_CONN_INTERVAL,		       
  45:.\BLEApplications.c ****     CONN_PARAM_UPDATE_SLAVE_LATENCY,			    
  46:.\BLEApplications.c ****     CONN_PARAM_UPDATE_SUPRV_TIMEOUT 			         	
  47:.\BLEApplications.c **** };
  48:.\BLEApplications.c **** 
ARM GAS  C:\Users\ksoneda\AppData\Local\Temp\ccgWYDQL.s 			page 3


  49:.\BLEApplications.c **** /* Status flag for the Stack Busy state. This flag is used to notify the application 
  50:.\BLEApplications.c **** * whether there is stack buffer free to push more data or not */
  51:.\BLEApplications.c **** uint8 busyStatus = CYBLE_STACK_STATE_FREE;
  52:.\BLEApplications.c **** 
  53:.\BLEApplications.c **** extern float dataArray[];
  54:.\BLEApplications.c **** //extern uint8 eeprom_read_index;
  55:.\BLEApplications.c **** 
  56:.\BLEApplications.c **** /****************************************************************************/
  57:.\BLEApplications.c **** //BLE STACK HANDLING
  58:.\BLEApplications.c **** void CustomEventHandler(uint32 event, void *eventParam)
  59:.\BLEApplications.c **** {
  67              		.loc 1 59 0
  68              		.cfi_startproc
  69 0000 80B5     		push	{r7, lr}
  70              		.cfi_def_cfa_offset 8
  71              		.cfi_offset 7, -8
  72              		.cfi_offset 14, -4
  73 0002 84B0     		sub	sp, sp, #16
  74              		.cfi_def_cfa_offset 24
  75 0004 00AF     		add	r7, sp, #0
  76              		.cfi_def_cfa_register 7
  77 0006 7860     		str	r0, [r7, #4]
  78 0008 3960     		str	r1, [r7]
  60:.\BLEApplications.c ****     CYBLE_GATTS_WRITE_REQ_PARAM_T *wrReqParam;
  61:.\BLEApplications.c **** 	
  62:.\BLEApplications.c ****     switch(event)
  79              		.loc 1 62 0
  80 000a 7B68     		ldr	r3, [r7, #4]
  81 000c 272B     		cmp	r3, #39
  82 000e 00D1     		bne	.LCB16
  83 0010 63E0     		b	.L19	@long jump
  84              	.LCB16:
  85 0012 0BD8     		bhi	.L4
  86 0014 022B     		cmp	r3, #2
  87 0016 00D1     		bne	.LCB20
  88 0018 61E0     		b	.L20	@long jump
  89              	.LCB20:
  90 001a 02D8     		bhi	.L6
  91 001c 012B     		cmp	r3, #1
  92 001e 12D0     		beq	.L7
  63:.\BLEApplications.c **** 	{
  64:.\BLEApplications.c ****         /**********************************************************
  65:.\BLEApplications.c ****         *                       General Events
  66:.\BLEApplications.c ****         ***********************************************************/
  67:.\BLEApplications.c **** 		case CYBLE_EVT_STACK_ON:
  68:.\BLEApplications.c **** 			/* This event is received when component is Started */
  69:.\BLEApplications.c **** 			
  70:.\BLEApplications.c **** 			/* Set restartAdvertisement flag to allow calling Advertisement 
  71:.\BLEApplications.c **** 			* API from main function */
  72:.\BLEApplications.c **** 			restartAdvertisement = TRUE;
  73:.\BLEApplications.c **** 			
  74:.\BLEApplications.c **** 			break;
  75:.\BLEApplications.c **** 		
  76:.\BLEApplications.c **** 		case CYBLE_EVT_TIMEOUT:
  77:.\BLEApplications.c **** 			/* Event Handling for Timeout  */
  78:.\BLEApplications.c **** 			
  79:.\BLEApplications.c **** 			break;
ARM GAS  C:\Users\ksoneda\AppData\Local\Temp\ccgWYDQL.s 			page 4


  80:.\BLEApplications.c **** 		
  81:.\BLEApplications.c ****         /**********************************************************
  82:.\BLEApplications.c ****         *                       GAP Events
  83:.\BLEApplications.c ****         ***********************************************************/
  84:.\BLEApplications.c **** 				
  85:.\BLEApplications.c ****         case CYBLE_EVT_GAPP_ADVERTISEMENT_START_STOP:
  86:.\BLEApplications.c **** 			
  87:.\BLEApplications.c **** 			if(CyBle_GetState() == CYBLE_STATE_DISCONNECTED)
  88:.\BLEApplications.c **** 			{
  89:.\BLEApplications.c **** 				/* Set restartAdvertisement flag to allow calling Advertisement 
  90:.\BLEApplications.c **** 				* API from main function */
  91:.\BLEApplications.c **** 				restartAdvertisement = TRUE;
  92:.\BLEApplications.c **** 			}
  93:.\BLEApplications.c **** 			break;
  94:.\BLEApplications.c **** 			
  95:.\BLEApplications.c **** 		case CYBLE_EVT_GAP_DEVICE_CONNECTED:		
  96:.\BLEApplications.c **** 			/* This event is received when device is connected over GAP layer */
  97:.\BLEApplications.c **** 
  98:.\BLEApplications.c **** 			break;
  99:.\BLEApplications.c **** 			
 100:.\BLEApplications.c ****         case CYBLE_EVT_GAP_DEVICE_DISCONNECTED:		
 101:.\BLEApplications.c **** 			/* This event is received when device is disconnected */
 102:.\BLEApplications.c **** 			
 103:.\BLEApplications.c **** 			/* Set restartAdvertisement flag to allow calling Advertisement 
 104:.\BLEApplications.c **** 			* API from main function */
 105:.\BLEApplications.c **** 			restartAdvertisement = TRUE;
 106:.\BLEApplications.c **** 
 107:.\BLEApplications.c ****             break;
 108:.\BLEApplications.c **** 
 109:.\BLEApplications.c ****         /**********************************************************
 110:.\BLEApplications.c ****         *                       GATT Events
 111:.\BLEApplications.c ****         ***********************************************************/
 112:.\BLEApplications.c ****         case CYBLE_EVT_GATT_CONNECT_IND:
 113:.\BLEApplications.c **** 			/* This event is received when device is connected over GATT level */
 114:.\BLEApplications.c **** 			
 115:.\BLEApplications.c **** 			/* Update attribute handle on GATT Connection*/
 116:.\BLEApplications.c ****             connectionHandle = *(CYBLE_CONN_HANDLE_T *)eventParam;	
 117:.\BLEApplications.c **** 			
 118:.\BLEApplications.c **** 			/* This flag is used in application to check connection status */
 119:.\BLEApplications.c **** 			deviceConnected = TRUE;	
 120:.\BLEApplications.c **** 	
 121:.\BLEApplications.c ****             break;
 122:.\BLEApplications.c **** 			
 123:.\BLEApplications.c ****         case CYBLE_EVT_GATT_DISCONNECT_IND:	
 124:.\BLEApplications.c **** 			/*This event is received when device is disconnected. 
 125:.\BLEApplications.c **** 			* Update connection flag accordingly */
 126:.\BLEApplications.c **** 			deviceConnected = FALSE;
 127:.\BLEApplications.c **** 			
 128:.\BLEApplications.c **** 			/* Reset notification flag to prevent further notifications
 129:.\BLEApplications.c **** 			 * being sent to Central device after next connection. */
 130:.\BLEApplications.c **** 			startNotification = FALSE;
 131:.\BLEApplications.c **** 			
 132:.\BLEApplications.c **** 			/* Reset the CCCD value to disable notifications */
 133:.\BLEApplications.c **** 			updateNotificationCCCAttribute = TRUE;
 134:.\BLEApplications.c **** 			UpdateNotificationCCCD();
 135:.\BLEApplications.c **** 			
 136:.\BLEApplications.c **** 			/* Reset the isConnectionUpdateRequested flag to allow sending
ARM GAS  C:\Users\ksoneda\AppData\Local\Temp\ccgWYDQL.s 			page 5


 137:.\BLEApplications.c **** 			* connection parameter update request in next connection */
 138:.\BLEApplications.c **** 			isConnectionUpdateRequested = TRUE;
 139:.\BLEApplications.c **** 			break;    
 140:.\BLEApplications.c **** 			
 141:.\BLEApplications.c **** 			
 142:.\BLEApplications.c ****         case CYBLE_EVT_GATTS_WRITE_REQ:				
 143:.\BLEApplications.c **** 			/*When this event is triggered, the peripheral has received 
 144:.\BLEApplications.c **** 			* a write command on the custom characteristic */
 145:.\BLEApplications.c **** 			
 146:.\BLEApplications.c **** 			/* Extract the write value from the event parameter */
 147:.\BLEApplications.c ****             wrReqParam = (CYBLE_GATTS_WRITE_REQ_PARAM_T *) eventParam;
 148:.\BLEApplications.c **** 			/* Check if the returned handle is matching to Random Data Client custom configuration*/
 149:.\BLEApplications.c ****             if(CYBLE_AIR_QUALITY_DATA_AIR_QUALITY_DATA_CLIENT_CHARACTERISTIC_CONFIGURATION_DESC_HAN
 150:.\BLEApplications.c ****             {
 151:.\BLEApplications.c ****                 /* Set flag so that application can start sending notifications.*/
 152:.\BLEApplications.c **** 				startNotification = wrReqParam->handleValPair.value.val[CYBLE_AIR_QUALITY_DATA_AIR_QUALITY_DATA
 153:.\BLEApplications.c **** 				
 154:.\BLEApplications.c **** 				/* Set flag to allow CCCD to be updated for next read operation */
 155:.\BLEApplications.c **** 				updateNotificationCCCAttribute = TRUE;
 156:.\BLEApplications.c **** 			}
 157:.\BLEApplications.c **** 			/* Send the response to the write command received. */
 158:.\BLEApplications.c **** 			CyBle_GattsWriteRsp(connectionHandle);			
 159:.\BLEApplications.c ****             break;			
 160:.\BLEApplications.c **** 		
 161:.\BLEApplications.c **** 		case CYBLE_EVT_L2CAP_CONN_PARAM_UPDATE_RSP:
 162:.\BLEApplications.c **** 				/* If L2CAP connection parameter update response received, reset application flag */
 163:.\BLEApplications.c ****             	isConnectionUpdateRequested = FALSE;
 164:.\BLEApplications.c ****             break;
 165:.\BLEApplications.c **** 		
 166:.\BLEApplications.c **** 		case CYBLE_EVT_STACK_BUSY_STATUS:
 167:.\BLEApplications.c **** 			/* This event is generated when the internal stack buffer is full and no more
 168:.\BLEApplications.c **** 			* data can be accepted or the stack has buffer available and can accept data.
 169:.\BLEApplications.c **** 			* This event is used by application to prevent pushing lot of data to stack. */
 170:.\BLEApplications.c **** 			
 171:.\BLEApplications.c **** 			/* Extract the present stack status */
 172:.\BLEApplications.c ****             busyStatus = * (uint8*)eventParam;
 173:.\BLEApplications.c ****             break;
 174:.\BLEApplications.c **** 			
 175:.\BLEApplications.c ****         default:
 176:.\BLEApplications.c ****                         
 177:.\BLEApplications.c ****             break;
  93              		.loc 1 177 0
  94 0020 5EE0     		b	.L1
  95              	.L6:
  62:.\BLEApplications.c ****     switch(event)
  96              		.loc 1 62 0
  97 0022 052B     		cmp	r3, #5
  98 0024 54D0     		beq	.L8
  99 0026 262B     		cmp	r3, #38
 100 0028 11D0     		beq	.L9
 101              		.loc 1 177 0
 102 002a 59E0     		b	.L1
 103              	.L4:
  62:.\BLEApplications.c ****     switch(event)
 104              		.loc 1 62 0
 105 002c 422B     		cmp	r3, #66
 106 002e 29D0     		beq	.L10
ARM GAS  C:\Users\ksoneda\AppData\Local\Temp\ccgWYDQL.s 			page 6


 107 0030 04D8     		bhi	.L11
 108 0032 282B     		cmp	r3, #40
 109 0034 14D0     		beq	.L12
 110 0036 412B     		cmp	r3, #65
 111 0038 16D0     		beq	.L13
 112              		.loc 1 177 0
 113 003a 51E0     		b	.L1
 114              	.L11:
  62:.\BLEApplications.c ****     switch(event)
 115              		.loc 1 62 0
 116 003c 4C2B     		cmp	r3, #76
 117 003e 30D0     		beq	.L14
 118 0040 712B     		cmp	r3, #113
 119 0042 41D0     		beq	.L15
 120              		.loc 1 177 0
 121 0044 4CE0     		b	.L1
 122              	.L7:
  72:.\BLEApplications.c **** 			restartAdvertisement = TRUE;
 123              		.loc 1 72 0
 124 0046 284B     		ldr	r3, .L21
 125 0048 0122     		mov	r2, #1
 126 004a 1A70     		strb	r2, [r3]
  74:.\BLEApplications.c **** 			break;
 127              		.loc 1 74 0
 128 004c 48E0     		b	.L1
 129              	.L9:
  87:.\BLEApplications.c **** 			if(CyBle_GetState() == CYBLE_STATE_DISCONNECTED)
 130              		.loc 1 87 0
 131 004e 274B     		ldr	r3, .L21+4
 132 0050 1B78     		ldrb	r3, [r3]
 133 0052 042B     		cmp	r3, #4
 134 0054 03D1     		bne	.L17
  91:.\BLEApplications.c **** 				restartAdvertisement = TRUE;
 135              		.loc 1 91 0
 136 0056 244B     		ldr	r3, .L21
 137 0058 0122     		mov	r2, #1
 138 005a 1A70     		strb	r2, [r3]
  93:.\BLEApplications.c **** 			break;
 139              		.loc 1 93 0
 140 005c 40E0     		b	.L1
 141              	.L17:
 142 005e 3FE0     		b	.L1
 143              	.L12:
 105:.\BLEApplications.c **** 			restartAdvertisement = TRUE;
 144              		.loc 1 105 0
 145 0060 214B     		ldr	r3, .L21
 146 0062 0122     		mov	r2, #1
 147 0064 1A70     		strb	r2, [r3]
 107:.\BLEApplications.c ****             break;
 148              		.loc 1 107 0
 149 0066 3BE0     		b	.L1
 150              	.L13:
 116:.\BLEApplications.c ****             connectionHandle = *(CYBLE_CONN_HANDLE_T *)eventParam;	
 151              		.loc 1 116 0
 152 0068 214A     		ldr	r2, .L21+8
 153 006a 3B68     		ldr	r3, [r7]
 154 006c 111C     		mov	r1, r2
ARM GAS  C:\Users\ksoneda\AppData\Local\Temp\ccgWYDQL.s 			page 7


 155 006e 1A1C     		mov	r2, r3
 156 0070 0223     		mov	r3, #2
 157 0072 081C     		mov	r0, r1
 158 0074 111C     		mov	r1, r2
 159 0076 1A1C     		mov	r2, r3
 160 0078 FFF7FEFF 		bl	memcpy
 119:.\BLEApplications.c **** 			deviceConnected = TRUE;	
 161              		.loc 1 119 0
 162 007c 1D4B     		ldr	r3, .L21+12
 163 007e 0122     		mov	r2, #1
 164 0080 1A70     		strb	r2, [r3]
 121:.\BLEApplications.c ****             break;
 165              		.loc 1 121 0
 166 0082 2DE0     		b	.L1
 167              	.L10:
 126:.\BLEApplications.c **** 			deviceConnected = FALSE;
 168              		.loc 1 126 0
 169 0084 1B4B     		ldr	r3, .L21+12
 170 0086 0022     		mov	r2, #0
 171 0088 1A70     		strb	r2, [r3]
 130:.\BLEApplications.c **** 			startNotification = FALSE;
 172              		.loc 1 130 0
 173 008a 1B4B     		ldr	r3, .L21+16
 174 008c 0022     		mov	r2, #0
 175 008e 1A70     		strb	r2, [r3]
 133:.\BLEApplications.c **** 			updateNotificationCCCAttribute = TRUE;
 176              		.loc 1 133 0
 177 0090 1A4B     		ldr	r3, .L21+20
 178 0092 0122     		mov	r2, #1
 179 0094 1A70     		strb	r2, [r3]
 134:.\BLEApplications.c **** 			UpdateNotificationCCCD();
 180              		.loc 1 134 0
 181 0096 FFF7FEFF 		bl	UpdateNotificationCCCD
 138:.\BLEApplications.c **** 			isConnectionUpdateRequested = TRUE;
 182              		.loc 1 138 0
 183 009a 194B     		ldr	r3, .L21+24
 184 009c 0122     		mov	r2, #1
 185 009e 1A70     		strb	r2, [r3]
 139:.\BLEApplications.c **** 			break;    
 186              		.loc 1 139 0
 187 00a0 1EE0     		b	.L1
 188              	.L14:
 147:.\BLEApplications.c ****             wrReqParam = (CYBLE_GATTS_WRITE_REQ_PARAM_T *) eventParam;
 189              		.loc 1 147 0
 190 00a2 3B68     		ldr	r3, [r7]
 191 00a4 FB60     		str	r3, [r7, #12]
 149:.\BLEApplications.c ****             if(CYBLE_AIR_QUALITY_DATA_AIR_QUALITY_DATA_CLIENT_CHARACTERISTIC_CONFIGURATION_DESC_HAN
 192              		.loc 1 149 0
 193 00a6 FB68     		ldr	r3, [r7, #12]
 194 00a8 9B89     		ldrh	r3, [r3, #12]
 195 00aa 0F2B     		cmp	r3, #15
 196 00ac 07D1     		bne	.L18
 152:.\BLEApplications.c **** 				startNotification = wrReqParam->handleValPair.value.val[CYBLE_AIR_QUALITY_DATA_AIR_QUALITY_DATA
 197              		.loc 1 152 0
 198 00ae FB68     		ldr	r3, [r7, #12]
 199 00b0 5B68     		ldr	r3, [r3, #4]
 200 00b2 1A78     		ldrb	r2, [r3]
ARM GAS  C:\Users\ksoneda\AppData\Local\Temp\ccgWYDQL.s 			page 8


 201 00b4 104B     		ldr	r3, .L21+16
 202 00b6 1A70     		strb	r2, [r3]
 155:.\BLEApplications.c **** 				updateNotificationCCCAttribute = TRUE;
 203              		.loc 1 155 0
 204 00b8 104B     		ldr	r3, .L21+20
 205 00ba 0122     		mov	r2, #1
 206 00bc 1A70     		strb	r2, [r3]
 207              	.L18:
 158:.\BLEApplications.c **** 			CyBle_GattsWriteRsp(connectionHandle);			
 208              		.loc 1 158 0
 209 00be 0C4B     		ldr	r3, .L21+8
 210 00c0 1868     		ldr	r0, [r3]
 211 00c2 FFF7FEFF 		bl	CyBle_GattsWriteRsp
 159:.\BLEApplications.c ****             break;			
 212              		.loc 1 159 0
 213 00c6 0BE0     		b	.L1
 214              	.L15:
 163:.\BLEApplications.c ****             	isConnectionUpdateRequested = FALSE;
 215              		.loc 1 163 0
 216 00c8 0D4B     		ldr	r3, .L21+24
 217 00ca 0022     		mov	r2, #0
 218 00cc 1A70     		strb	r2, [r3]
 164:.\BLEApplications.c ****             break;
 219              		.loc 1 164 0
 220 00ce 07E0     		b	.L1
 221              	.L8:
 172:.\BLEApplications.c ****             busyStatus = * (uint8*)eventParam;
 222              		.loc 1 172 0
 223 00d0 3B68     		ldr	r3, [r7]
 224 00d2 1A78     		ldrb	r2, [r3]
 225 00d4 0B4B     		ldr	r3, .L21+28
 226 00d6 1A70     		strb	r2, [r3]
 173:.\BLEApplications.c ****             break;
 227              		.loc 1 173 0
 228 00d8 02E0     		b	.L1
 229              	.L19:
  98:.\BLEApplications.c **** 			break;
 230              		.loc 1 98 0
 231 00da C046     		mov	r8, r8
 232 00dc 00E0     		b	.L1
 233              	.L20:
  79:.\BLEApplications.c **** 			break;
 234              		.loc 1 79 0
 235 00de C046     		mov	r8, r8
 236              	.L1:
 178:.\BLEApplications.c **** 	} /* switch(event)*/
 179:.\BLEApplications.c **** }
 237              		.loc 1 179 0
 238 00e0 BD46     		mov	sp, r7
 239 00e2 04B0     		add	sp, sp, #16
 240              		@ sp needed
 241 00e4 80BD     		pop	{r7, pc}
 242              	.L22:
 243 00e6 C046     		.align	2
 244              	.L21:
 245 00e8 00000000 		.word	restartAdvertisement
 246 00ec 00000000 		.word	cyBle_state
ARM GAS  C:\Users\ksoneda\AppData\Local\Temp\ccgWYDQL.s 			page 9


 247 00f0 00000000 		.word	connectionHandle
 248 00f4 00000000 		.word	deviceConnected
 249 00f8 00000000 		.word	startNotification
 250 00fc 00000000 		.word	updateNotificationCCCAttribute
 251 0100 00000000 		.word	isConnectionUpdateRequested
 252 0104 00000000 		.word	busyStatus
 253              		.cfi_endproc
 254              	.LFE35:
 255              		.size	CustomEventHandler, .-CustomEventHandler
 256              		.section	.text.SendDataOverNotification,"ax",%progbits
 257              		.align	2
 258              		.global	SendDataOverNotification
 259              		.code	16
 260              		.thumb_func
 261              		.type	SendDataOverNotification, %function
 262              	SendDataOverNotification:
 263              	.LFB36:
 180:.\BLEApplications.c **** 
 181:.\BLEApplications.c **** //Updates notification data and reports new data to BLE for sending over notifications
 182:.\BLEApplications.c **** //Input: uint8 array
 183:.\BLEApplications.c **** void SendDataOverNotification(uint8 *randValue)
 184:.\BLEApplications.c **** {
 264              		.loc 1 184 0
 265              		.cfi_startproc
 266 0000 80B5     		push	{r7, lr}
 267              		.cfi_def_cfa_offset 8
 268              		.cfi_offset 7, -8
 269              		.cfi_offset 14, -4
 270 0002 86B0     		sub	sp, sp, #24
 271              		.cfi_def_cfa_offset 32
 272 0004 00AF     		add	r7, sp, #0
 273              		.cfi_def_cfa_register 7
 274 0006 7860     		str	r0, [r7, #4]
 185:.\BLEApplications.c **** 	/* 'notificationHandle' is handle to store notification data parameters */
 186:.\BLEApplications.c **** 	CYBLE_GATTS_HANDLE_VALUE_NTF_T		notificationHandle; 
 187:.\BLEApplications.c **** 	
 188:.\BLEApplications.c **** 	/* If stack is not busy, then send the notification */
 189:.\BLEApplications.c **** 	if(busyStatus == CYBLE_STACK_STATE_FREE)
 275              		.loc 1 189 0
 276 0008 0C4B     		ldr	r3, .L25
 277 000a 1B78     		ldrb	r3, [r3]
 278 000c 002B     		cmp	r3, #0
 279 000e 12D1     		bne	.L23
 190:.\BLEApplications.c **** 	{
 191:.\BLEApplications.c **** 		/* Update Notification handle with random data*/
 192:.\BLEApplications.c **** 		notificationHandle.attrHandle = CYBLE_AIR_QUALITY_DATA_AIR_QUALITY_DATA_CHAR_HANDLE;				
 280              		.loc 1 192 0
 281 0010 3B1C     		mov	r3, r7
 282 0012 0C33     		add	r3, r3, #12
 283 0014 0E22     		mov	r2, #14
 284 0016 1A81     		strh	r2, [r3, #8]
 193:.\BLEApplications.c **** 		notificationHandle.value.val = randValue;
 285              		.loc 1 193 0
 286 0018 3B1C     		mov	r3, r7
 287 001a 0C33     		add	r3, r3, #12
 288 001c 7A68     		ldr	r2, [r7, #4]
 289 001e 1A60     		str	r2, [r3]
ARM GAS  C:\Users\ksoneda\AppData\Local\Temp\ccgWYDQL.s 			page 10


 194:.\BLEApplications.c **** 		notificationHandle.value.len = RAND_NOTIFICATION_DATA_LEN;
 290              		.loc 1 194 0
 291 0020 3B1C     		mov	r3, r7
 292 0022 0C33     		add	r3, r3, #12
 293 0024 0122     		mov	r2, #1
 294 0026 9A80     		strh	r2, [r3, #4]
 195:.\BLEApplications.c **** 		
 196:.\BLEApplications.c **** 		/* Report data to BLE component for sending data by notifications*/
 197:.\BLEApplications.c **** 		CyBle_GattsNotification(connectionHandle,&notificationHandle);
 295              		.loc 1 197 0
 296 0028 054B     		ldr	r3, .L25+4
 297 002a 3A1C     		mov	r2, r7
 298 002c 0C32     		add	r2, r2, #12
 299 002e 1868     		ldr	r0, [r3]
 300 0030 111C     		mov	r1, r2
 301 0032 FFF7FEFF 		bl	CyBle_GattsNotification
 302              	.L23:
 198:.\BLEApplications.c **** 	}
 199:.\BLEApplications.c **** }
 303              		.loc 1 199 0
 304 0036 BD46     		mov	sp, r7
 305 0038 06B0     		add	sp, sp, #24
 306              		@ sp needed
 307 003a 80BD     		pop	{r7, pc}
 308              	.L26:
 309              		.align	2
 310              	.L25:
 311 003c 00000000 		.word	busyStatus
 312 0040 00000000 		.word	connectionHandle
 313              		.cfi_endproc
 314              	.LFE36:
 315              		.size	SendDataOverNotification, .-SendDataOverNotification
 316              		.section	.text.UpdateConnectionParam,"ax",%progbits
 317              		.align	2
 318              		.global	UpdateConnectionParam
 319              		.code	16
 320              		.thumb_func
 321              		.type	UpdateConnectionParam, %function
 322              	UpdateConnectionParam:
 323              	.LFB37:
 200:.\BLEApplications.c **** 
 201:.\BLEApplications.c **** //Communicates the connection parameters to connected device after connection has been established.
 202:.\BLEApplications.c **** void UpdateConnectionParam(void)
 203:.\BLEApplications.c **** {
 324              		.loc 1 203 0
 325              		.cfi_startproc
 326 0000 80B5     		push	{r7, lr}
 327              		.cfi_def_cfa_offset 8
 328              		.cfi_offset 7, -8
 329              		.cfi_offset 14, -4
 330 0002 00AF     		add	r7, sp, #0
 331              		.cfi_def_cfa_register 7
 204:.\BLEApplications.c **** 	/* If device is connected and Update connection parameter not updated yet,
 205:.\BLEApplications.c **** 	* then send the Connection Parameter Update request to Client. */
 206:.\BLEApplications.c ****     if(deviceConnected && isConnectionUpdateRequested)
 332              		.loc 1 206 0
 333 0004 094B     		ldr	r3, .L29
ARM GAS  C:\Users\ksoneda\AppData\Local\Temp\ccgWYDQL.s 			page 11


 334 0006 1B78     		ldrb	r3, [r3]
 335 0008 002B     		cmp	r3, #0
 336 000a 0DD0     		beq	.L27
 337              		.loc 1 206 0 is_stmt 0 discriminator 1
 338 000c 084B     		ldr	r3, .L29+4
 339 000e 1B78     		ldrb	r3, [r3]
 340 0010 002B     		cmp	r3, #0
 341 0012 09D0     		beq	.L27
 207:.\BLEApplications.c **** 	{
 208:.\BLEApplications.c **** 		/* Reset the flag to indicate that connection Update request has been sent */
 209:.\BLEApplications.c **** 		isConnectionUpdateRequested = FALSE;
 342              		.loc 1 209 0 is_stmt 1
 343 0014 064B     		ldr	r3, .L29+4
 344 0016 0022     		mov	r2, #0
 345 0018 1A70     		strb	r2, [r3]
 210:.\BLEApplications.c **** 		
 211:.\BLEApplications.c **** 		/* Send Connection Update request with set Parameter */
 212:.\BLEApplications.c **** 		CyBle_L2capLeConnectionParamUpdateRequest(connectionHandle.bdHandle, &ConnectionParam);
 346              		.loc 1 212 0
 347 001a 064B     		ldr	r3, .L29+8
 348 001c 1A78     		ldrb	r2, [r3]
 349 001e 064B     		ldr	r3, .L29+12
 350 0020 101C     		mov	r0, r2
 351 0022 191C     		mov	r1, r3
 352 0024 FFF7FEFF 		bl	CyBle_L2capLeConnectionParamUpdateRequest
 353              	.L27:
 213:.\BLEApplications.c **** 	}
 214:.\BLEApplications.c **** }
 354              		.loc 1 214 0
 355 0028 BD46     		mov	sp, r7
 356              		@ sp needed
 357 002a 80BD     		pop	{r7, pc}
 358              	.L30:
 359              		.align	2
 360              	.L29:
 361 002c 00000000 		.word	deviceConnected
 362 0030 00000000 		.word	isConnectionUpdateRequested
 363 0034 00000000 		.word	connectionHandle
 364 0038 04000000 		.word	ConnectionParam
 365              		.cfi_endproc
 366              	.LFE37:
 367              		.size	UpdateConnectionParam, .-UpdateConnectionParam
 368              		.section	.text.UpdateNotificationCCCD,"ax",%progbits
 369              		.align	2
 370              		.global	UpdateNotificationCCCD
 371              		.code	16
 372              		.thumb_func
 373              		.type	UpdateNotificationCCCD, %function
 374              	UpdateNotificationCCCD:
 375              	.LFB38:
 215:.\BLEApplications.c **** 
 216:.\BLEApplications.c **** //Updates BLE component with new notification status
 217:.\BLEApplications.c **** void UpdateNotificationCCCD(void)
 218:.\BLEApplications.c **** {
 376              		.loc 1 218 0
 377              		.cfi_startproc
 378 0000 80B5     		push	{r7, lr}
ARM GAS  C:\Users\ksoneda\AppData\Local\Temp\ccgWYDQL.s 			page 12


 379              		.cfi_def_cfa_offset 8
 380              		.cfi_offset 7, -8
 381              		.cfi_offset 14, -4
 382 0002 84B0     		sub	sp, sp, #16
 383              		.cfi_def_cfa_offset 24
 384 0004 00AF     		add	r7, sp, #0
 385              		.cfi_def_cfa_register 7
 219:.\BLEApplications.c **** 	/* Local variable to store the current CCCD value */
 220:.\BLEApplications.c **** 	uint8 CCCDvalue[2];
 221:.\BLEApplications.c **** 	
 222:.\BLEApplications.c **** 	/* Handle value to update the CCCD */
 223:.\BLEApplications.c **** 	CYBLE_GATT_HANDLE_VALUE_PAIR_T	 notificationCCCDhandle;
 224:.\BLEApplications.c **** 	
 225:.\BLEApplications.c **** 	/* Update notification attribute only when there has been change */
 226:.\BLEApplications.c **** 	if(updateNotificationCCCAttribute)
 386              		.loc 1 226 0
 387 0006 124B     		ldr	r3, .L33
 388 0008 1B78     		ldrb	r3, [r3]
 389 000a 002B     		cmp	r3, #0
 390 000c 1DD0     		beq	.L31
 227:.\BLEApplications.c **** 	{	
 228:.\BLEApplications.c **** 
 229:.\BLEApplications.c **** 		updateNotificationCCCAttribute=FALSE;
 391              		.loc 1 229 0
 392 000e 104B     		ldr	r3, .L33
 393 0010 0022     		mov	r2, #0
 394 0012 1A70     		strb	r2, [r3]
 230:.\BLEApplications.c **** 		
 231:.\BLEApplications.c **** 		/* Write the present notification status to the local variable */
 232:.\BLEApplications.c **** 		CCCDvalue[0] = startNotification;
 395              		.loc 1 232 0
 396 0014 0F4B     		ldr	r3, .L33+4
 397 0016 1A78     		ldrb	r2, [r3]
 398 0018 3B1C     		mov	r3, r7
 399 001a 0C33     		add	r3, r3, #12
 400 001c 1A70     		strb	r2, [r3]
 233:.\BLEApplications.c **** 		CCCDvalue[1] = 0x00;
 401              		.loc 1 233 0
 402 001e 3B1C     		mov	r3, r7
 403 0020 0C33     		add	r3, r3, #12
 404 0022 0022     		mov	r2, #0
 405 0024 5A70     		strb	r2, [r3, #1]
 234:.\BLEApplications.c **** 		
 235:.\BLEApplications.c **** 		/* Update CCCD handle with notification status data*/
 236:.\BLEApplications.c **** 		notificationCCCDhandle.attrHandle = CYBLE_AIR_QUALITY_DATA_AIR_QUALITY_DATA_CLIENT_CHARACTERISTIC
 406              		.loc 1 236 0
 407 0026 3B1C     		mov	r3, r7
 408 0028 0F22     		mov	r2, #15
 409 002a 1A81     		strh	r2, [r3, #8]
 237:.\BLEApplications.c **** 		notificationCCCDhandle.value.val = CCCDvalue;
 410              		.loc 1 237 0
 411 002c 3B1C     		mov	r3, r7
 412 002e 3A1C     		mov	r2, r7
 413 0030 0C32     		add	r2, r2, #12
 414 0032 1A60     		str	r2, [r3]
 238:.\BLEApplications.c **** 		notificationCCCDhandle.value.len = CCC_DATA_LEN;
 415              		.loc 1 238 0
ARM GAS  C:\Users\ksoneda\AppData\Local\Temp\ccgWYDQL.s 			page 13


 416 0034 3B1C     		mov	r3, r7
 417 0036 0222     		mov	r2, #2
 418 0038 9A80     		strh	r2, [r3, #4]
 239:.\BLEApplications.c **** 		
 240:.\BLEApplications.c **** 		/* Report data to BLE component for sending data when read by Central device */
 241:.\BLEApplications.c **** 		CyBle_GattsWriteAttributeValue(&notificationCCCDhandle, ZERO, &connectionHandle, CYBLE_GATT_DB_LO
 419              		.loc 1 241 0
 420 003a 3A1C     		mov	r2, r7
 421 003c 064B     		ldr	r3, .L33+8
 422 003e 101C     		mov	r0, r2
 423 0040 0021     		mov	r1, #0
 424 0042 1A1C     		mov	r2, r3
 425 0044 0023     		mov	r3, #0
 426 0046 FFF7FEFF 		bl	CyBle_GattsWriteAttributeValue
 427              	.L31:
 242:.\BLEApplications.c **** 	}
 243:.\BLEApplications.c **** }//void UpdateNotificationCCCD(void)
 428              		.loc 1 243 0
 429 004a BD46     		mov	sp, r7
 430 004c 04B0     		add	sp, sp, #16
 431              		@ sp needed
 432 004e 80BD     		pop	{r7, pc}
 433              	.L34:
 434              		.align	2
 435              	.L33:
 436 0050 00000000 		.word	updateNotificationCCCAttribute
 437 0054 00000000 		.word	startNotification
 438 0058 00000000 		.word	connectionHandle
 439              		.cfi_endproc
 440              	.LFE38:
 441              		.size	UpdateNotificationCCCD, .-UpdateNotificationCCCD
 442              		.text
 443              	.Letext0:
 444              		.file 2 ".\\Generated_Source\\PSoC4/cytypes.h"
 445              		.file 3 ".\\Generated_Source\\PSoC4/BLE_StackGap.h"
 446              		.file 4 ".\\Generated_Source\\PSoC4/BLE_StackGatt.h"
 447              		.file 5 ".\\Generated_Source\\PSoC4/BLE_StackGattServer.h"
 448              		.file 6 ".\\Generated_Source\\PSoC4/BLE_Stack.h"
 449              		.file 7 ".\\Generated_Source\\PSoC4/BLE_eventHandler.h"