ARM GAS  C:\Users\ksoneda\AppData\Local\Temp\ccmTO5O7.s 			page 1


   1              		.cpu cortex-m0
   2              		.fpu softvfp
   3              		.eabi_attribute 20, 1
   4              		.eabi_attribute 21, 1
   5              		.eabi_attribute 23, 3
   6              		.eabi_attribute 24, 1
   7              		.eabi_attribute 25, 1
   8              		.eabi_attribute 26, 1
   9              		.eabi_attribute 30, 6
  10              		.eabi_attribute 34, 0
  11              		.eabi_attribute 18, 4
  12              		.code	16
  13              		.file	"HandleLowPower.c"
  14              		.text
  15              	.Ltext0:
  16              		.cfi_sections	.debug_frame
  17              		.section	.text.HandleLowPowerMode,"ax",%progbits
  18              		.align	2
  19              		.global	HandleLowPowerMode
  20              		.code	16
  21              		.thumb_func
  22              		.type	HandleLowPowerMode, %function
  23              	HandleLowPowerMode:
  24              	.LFB35:
  25              		.file 1 ".\\HandleLowPower.c"
   1:.\HandleLowPower.c **** /* ========================================
   2:.\HandleLowPower.c ****  *
   3:.\HandleLowPower.c ****  * Copyright YOUR COMPANY, THE YEAR
   4:.\HandleLowPower.c ****  * All Rights Reserved
   5:.\HandleLowPower.c ****  * UNPUBLISHED, LICENSED SOFTWARE.
   6:.\HandleLowPower.c ****  *
   7:.\HandleLowPower.c ****  * CONFIDENTIAL AND PROPRIETARY INFORMATION
   8:.\HandleLowPower.c ****  * WHICH IS THE PROPERTY OF your company.
   9:.\HandleLowPower.c ****  *
  10:.\HandleLowPower.c ****  * ========================================
  11:.\HandleLowPower.c **** */
  12:.\HandleLowPower.c **** #include <main.h>
  13:.\HandleLowPower.c **** 
  14:.\HandleLowPower.c **** void HandleLowPowerMode(void)
  15:.\HandleLowPower.c **** {
  26              		.loc 1 15 0
  27              		.cfi_startproc
  28 0000 80B5     		push	{r7, lr}
  29              		.cfi_def_cfa_offset 8
  30              		.cfi_offset 7, -8
  31              		.cfi_offset 14, -4
  32 0002 00AF     		add	r7, sp, #0
  33              		.cfi_def_cfa_register 7
  16:.\HandleLowPower.c **** 	#ifdef ENABLE_LOW_POWER_MODE
  17:.\HandleLowPower.c **** 		/* Local variable to store the status of BLESS Hardware block */
  18:.\HandleLowPower.c **** 		CYBLE_LP_MODE_T sleepMode;
  19:.\HandleLowPower.c **** 		CYBLE_BLESS_STATE_T blessState;
  20:.\HandleLowPower.c **** 		
  21:.\HandleLowPower.c **** 		
  22:.\HandleLowPower.c **** 		/* Put BLESS into Deep Sleep and check the return status */
  23:.\HandleLowPower.c **** 		sleepMode = CyBle_EnterLPM(CYBLE_BLESS_DEEPSLEEP);
  24:.\HandleLowPower.c **** 		
ARM GAS  C:\Users\ksoneda\AppData\Local\Temp\ccmTO5O7.s 			page 2


  25:.\HandleLowPower.c **** 		/* Disable global interrupt to prevent changes from any other interrupt ISR */
  26:.\HandleLowPower.c **** 		CyGlobalIntDisable;
  27:.\HandleLowPower.c **** 	
  28:.\HandleLowPower.c **** 		/* Check the Status of BLESS */
  29:.\HandleLowPower.c **** 		blessState = CyBle_GetBleSsState();
  30:.\HandleLowPower.c **** 
  31:.\HandleLowPower.c **** 		if(sleepMode == CYBLE_BLESS_DEEPSLEEP)
  32:.\HandleLowPower.c **** 		{
  33:.\HandleLowPower.c **** 		    /* If the ECO has started or the BLESS can go to Deep Sleep, then place CPU 
  34:.\HandleLowPower.c **** 			* to Deep Sleep */
  35:.\HandleLowPower.c **** 			if(blessState == CYBLE_BLESS_STATE_ECO_ON || blessState == CYBLE_BLESS_STATE_DEEPSLEEP)
  36:.\HandleLowPower.c **** 		    {
  37:.\HandleLowPower.c **** 		        CySysPmDeepSleep();
  38:.\HandleLowPower.c **** 		 	}
  39:.\HandleLowPower.c **** 		}
  40:.\HandleLowPower.c **** 		else
  41:.\HandleLowPower.c **** 		{
  42:.\HandleLowPower.c **** 		    if(blessState != CYBLE_BLESS_STATE_EVENT_CLOSE)
  43:.\HandleLowPower.c **** 		    {
  44:.\HandleLowPower.c **** 				/* If the BLESS hardware block cannot go to Deep Sleep and BLE Event has not 
  45:.\HandleLowPower.c **** 				* closed yet, then place CPU to Sleep */
  46:.\HandleLowPower.c **** 		        CySysPmSleep();
  47:.\HandleLowPower.c **** 		    }
  48:.\HandleLowPower.c **** 		}
  49:.\HandleLowPower.c **** 		
  50:.\HandleLowPower.c **** 		/* Re-enable global interrupt mask after wakeup */
  51:.\HandleLowPower.c **** 		CyGlobalIntEnable;
  52:.\HandleLowPower.c **** 		
  53:.\HandleLowPower.c **** 		
  54:.\HandleLowPower.c **** 	#endif
  55:.\HandleLowPower.c **** }
  34              		.loc 1 55 0
  35 0004 BD46     		mov	sp, r7
  36              		@ sp needed
  37 0006 80BD     		pop	{r7, pc}
  38              		.cfi_endproc
  39              	.LFE35:
  40              		.size	HandleLowPowerMode, .-HandleLowPowerMode
  41              		.section	.text.MyISR,"ax",%progbits
  42              		.align	2
  43              		.global	MyISR
  44              		.code	16
  45              		.thumb_func
  46              		.type	MyISR, %function
  47              	MyISR:
  48              	.LFB36:
  56:.\HandleLowPower.c **** 
  57:.\HandleLowPower.c **** /*******************************************************************************
  58:.\HandleLowPower.c **** * Function Name: MyISR
  59:.\HandleLowPower.c **** ********************************************************************************
  60:.\HandleLowPower.c **** * Summary:
  61:.\HandleLowPower.c **** *        ISR routine for isr_button. System enters here after CPU wakeup.
  62:.\HandleLowPower.c **** * Clears pending interrupt.
  63:.\HandleLowPower.c **** *
  64:.\HandleLowPower.c **** * Parameters:
  65:.\HandleLowPower.c **** *  void
  66:.\HandleLowPower.c **** *
ARM GAS  C:\Users\ksoneda\AppData\Local\Temp\ccmTO5O7.s 			page 3


  67:.\HandleLowPower.c **** * Return:
  68:.\HandleLowPower.c **** *  void
  69:.\HandleLowPower.c **** *
  70:.\HandleLowPower.c **** *******************************************************************************/
  71:.\HandleLowPower.c **** CY_ISR(MyISR)
  72:.\HandleLowPower.c **** {
  49              		.loc 1 72 0
  50              		.cfi_startproc
  51 0000 80B5     		push	{r7, lr}
  52              		.cfi_def_cfa_offset 8
  53              		.cfi_offset 7, -8
  54              		.cfi_offset 14, -4
  55 0002 00AF     		add	r7, sp, #0
  56              		.cfi_def_cfa_register 7
  73:.\HandleLowPower.c **** 	/* Clear Pending interrupts */
  74:.\HandleLowPower.c **** 	isr_button_ClearPending();
  57              		.loc 1 74 0
  58 0004 FFF7FEFF 		bl	isr_button_ClearPending
  75:.\HandleLowPower.c **** 	
  76:.\HandleLowPower.c **** 	User_Button_ClearInterrupt();
  59              		.loc 1 76 0
  60 0008 FFF7FEFF 		bl	User_Button_ClearInterrupt
  77:.\HandleLowPower.c **** }
  61              		.loc 1 77 0
  62 000c BD46     		mov	sp, r7
  63              		@ sp needed
  64 000e 80BD     		pop	{r7, pc}
  65              		.cfi_endproc
  66              	.LFE36:
  67              		.size	MyISR, .-MyISR
  68              		.text
  69              	.Letext0: