ARM GAS  C:\Users\ksoneda\AppData\Local\Temp\cchuVQI7.s 			page 1


   1              		.cpu cortex-m0
   2              		.fpu softvfp
   3              		.eabi_attribute 20, 1
   4              		.eabi_attribute 21, 1
   5              		.eabi_attribute 23, 3
   6              		.eabi_attribute 24, 1
   7              		.eabi_attribute 25, 1
   8              		.eabi_attribute 26, 1
   9              		.eabi_attribute 30, 6
  10              		.eabi_attribute 34, 0
  11              		.eabi_attribute 18, 4
  12              		.code	16
  13              		.file	"mainLoop.c"
  14              		.text
  15              	.Ltext0:
  16              		.cfi_sections	.debug_frame
  17              		.comm	dataArray,20,4
  18              		.data
  19              		.align	2
  20              		.type	wait, %object
  21              		.size	wait, 4
  22              	wait:
  23 0000 01000000 		.word	1
  24              		.global	__aeabi_ui2f
  25              		.global	__aeabi_fdiv
  26              		.global	__aeabi_fmul
  27              		.global	__aeabi_fadd
  28              		.section	.text.HandleDataCollection,"ax",%progbits
  29              		.align	2
  30              		.global	HandleDataCollection
  31              		.code	16
  32              		.thumb_func
  33              		.type	HandleDataCollection, %function
  34              	HandleDataCollection:
  35              	.LFB35:
  36              		.file 1 ".\\mainLoop.c"
   1:.\mainLoop.c  **** /* ========================================
   2:.\mainLoop.c  ****  *
   3:.\mainLoop.c  ****  * by Keith Soneda
   4:.\mainLoop.c  ****  * UC Davis - EEC136AB - Firmware for Air Quality Monitor - PSOC 4 BLE revision - March 2015
   5:.\mainLoop.c  ****  * Overview: Data Collection Cycle for Dust, Temperature, Humidity, and CO2
   6:.\mainLoop.c  ****  * ========================================
   7:.\mainLoop.c  **** */
   8:.\mainLoop.c  **** #include "main.h"
   9:.\mainLoop.c  **** 
  10:.\mainLoop.c  **** float dataArray[5];//stores most recent cycle worth of float values
  11:.\mainLoop.c  **** 
  12:.\mainLoop.c  **** extern uint32 SPdata;//stores low pulse time for small particle dust
  13:.\mainLoop.c  **** extern uint32 LPdata;//stores low pulse time for large particle dust
  14:.\mainLoop.c  **** 
  15:.\mainLoop.c  **** #ifdef MAIN_LOOP_H
  16:.\mainLoop.c  **** static uint32 wait= 1u;
  17:.\mainLoop.c  **** //Function for performing regular data measurements cycle and storing the data in EEPROM
  18:.\mainLoop.c  **** void HandleDataCollection(void)
  19:.\mainLoop.c  **** {
  37              		.loc 1 19 0
  38              		.cfi_startproc
ARM GAS  C:\Users\ksoneda\AppData\Local\Temp\cchuVQI7.s 			page 2


  39 0000 90B5     		push	{r4, r7, lr}
  40              		.cfi_def_cfa_offset 12
  41              		.cfi_offset 4, -12
  42              		.cfi_offset 7, -8
  43              		.cfi_offset 14, -4
  44 0002 8FB0     		sub	sp, sp, #60
  45              		.cfi_def_cfa_offset 72
  46 0004 00AF     		add	r7, sp, #0
  47              		.cfi_def_cfa_register 7
  20:.\mainLoop.c  **** 	//State Machine flags 
  21:.\mainLoop.c  **** 	static uint8 currentState = IDLE_STATE;
  22:.\mainLoop.c  **** 	static uint8 nextState = CONTINUOUS_MODE;//(Set in XBEE ISR) 
  23:.\mainLoop.c  **** 	static uint8 currentReadMode = CONTINUOUS_MODE;
  24:.\mainLoop.c  **** 	
  25:.\mainLoop.c  **** 	static uint32 dataBuf[3] = {1u, 1u, 1u};
  26:.\mainLoop.c  **** 	static uint32 *dataPtr = dataBuf;
  27:.\mainLoop.c  **** 	
  28:.\mainLoop.c  **** 
  29:.\mainLoop.c  **** 	if(FALSE == (--wait))//provides some delay between measurement cycles
  48              		.loc 1 29 0
  49 0006 914B     		ldr	r3, .L10
  50 0008 1B68     		ldr	r3, [r3]
  51 000a 5A1E     		sub	r2, r3, #1
  52 000c 8F4B     		ldr	r3, .L10
  53 000e 1A60     		str	r2, [r3]
  54 0010 8E4B     		ldr	r3, .L10
  55 0012 1B68     		ldr	r3, [r3]
  56 0014 002B     		cmp	r3, #0
  57 0016 00D0     		beq	.LCB21
  58 0018 14E1     		b	.L1	@long jump
  59              	.LCB21:
  30:.\mainLoop.c  **** 	{
  31:.\mainLoop.c  **** 		BLUE_Write(~BLUE_Read());
  60              		.loc 1 31 0
  61 001a FFF7FEFF 		bl	BLUE_Read
  62 001e 031C     		mov	r3, r0
  63 0020 DB43     		mvn	r3, r3
  64 0022 DBB2     		uxtb	r3, r3
  65 0024 181C     		mov	r0, r3
  66 0026 FFF7FEFF 		bl	BLUE_Write
  32:.\mainLoop.c  **** 		wait = 6553500;
  67              		.loc 1 32 0
  68 002a 884B     		ldr	r3, .L10
  69 002c 884A     		ldr	r2, .L10+4
  70 002e 1A60     		str	r2, [r3]
  33:.\mainLoop.c  **** 		switch (currentState)
  71              		.loc 1 33 0
  72 0030 884B     		ldr	r3, .L10+8
  73 0032 1B78     		ldrb	r3, [r3]
  74 0034 022B     		cmp	r3, #2
  75 0036 19D0     		beq	.L4
  76 0038 02DC     		bgt	.L5
  77 003a 012B     		cmp	r3, #1
  78 003c 07D0     		beq	.L6
  79 003e FAE0     		b	.L3
  80              	.L5:
  81 0040 032B     		cmp	r3, #3
ARM GAS  C:\Users\ksoneda\AppData\Local\Temp\cchuVQI7.s 			page 3


  82 0042 00D1     		bne	.LCB44
  83 0044 8DE0     		b	.L7	@long jump
  84              	.LCB44:
  85 0046 0B2B     		cmp	r3, #11
  86 0048 00D1     		bne	.LCB46
  87 004a 9FE0     		b	.L8	@long jump
  88              	.LCB46:
  89 004c F3E0     		b	.L3
  90              	.L6:
  34:.\mainLoop.c  **** 		{
  35:.\mainLoop.c  **** 			case IDLE_STATE:
  36:.\mainLoop.c  **** 			{
  37:.\mainLoop.c  **** 				if(nextState != STANDBY_MODE)
  91              		.loc 1 37 0
  92 004e 824B     		ldr	r3, .L10+12
  93 0050 1B78     		ldrb	r3, [r3]
  94 0052 012B     		cmp	r3, #1
  95 0054 0AD0     		beq	.L4
  38:.\mainLoop.c  **** 				{
  39:.\mainLoop.c  **** 					currentState = LoadNextState(nextState,&currentReadMode);
  96              		.loc 1 39 0
  97 0056 804B     		ldr	r3, .L10+12
  98 0058 1A78     		ldrb	r2, [r3]
  99 005a 804B     		ldr	r3, .L10+16
 100 005c 101C     		mov	r0, r2
 101 005e 191C     		mov	r1, r3
 102 0060 FFF7FEFF 		bl	LoadNextState
 103 0064 031C     		mov	r3, r0
 104 0066 1A1C     		mov	r2, r3
 105 0068 7A4B     		ldr	r3, .L10+8
 106 006a 1A70     		strb	r2, [r3]
 107              	.L4:
 108              	.LBB2:
  40:.\mainLoop.c  **** 				}
  41:.\mainLoop.c  **** 			}
  42:.\mainLoop.c  **** 			//break;
  43:.\mainLoop.c  **** 			
  44:.\mainLoop.c  **** 			#ifdef AMPHENOL_DUST_H
  45:.\mainLoop.c  **** 			case READ_DUST_STATE:
  46:.\mainLoop.c  **** 			{
  47:.\mainLoop.c  **** 				//#ifdef BASEBOARD_IS_ENABLED
  48:.\mainLoop.c  **** 				GREEN_Write(~GREEN_Read());	
 109              		.loc 1 48 0
 110 006c FFF7FEFF 		bl	GREEN_Read
 111 0070 031C     		mov	r3, r0
 112 0072 DB43     		mvn	r3, r3
 113 0074 DBB2     		uxtb	r3, r3
 114 0076 181C     		mov	r0, r3
 115 0078 FFF7FEFF 		bl	GREEN_Write
  49:.\mainLoop.c  **** 				//#endif
  50:.\mainLoop.c  **** 				
  51:.\mainLoop.c  **** //				uint32 dustOutput[2];
  52:.\mainLoop.c  **** //				uint32 *dustPtr = dustOutput;
  53:.\mainLoop.c  **** //				DustSamplingCycle(dustPtr);
  54:.\mainLoop.c  **** 				DustSamplingCycle();
 116              		.loc 1 54 0
 117 007c FFF7FEFF 		bl	DustSamplingCycle
ARM GAS  C:\Users\ksoneda\AppData\Local\Temp\cchuVQI7.s 			page 4


  55:.\mainLoop.c  **** 				
  56:.\mainLoop.c  **** 				//Conversion for DUST (LPO to PPM)
  57:.\mainLoop.c  **** 				float POLY_X3_SP = 0.0006;
 118              		.loc 1 57 0
 119 0080 774B     		ldr	r3, .L10+20
 120 0082 7B63     		str	r3, [r7, #52]
  58:.\mainLoop.c  **** 				float POLY_X2_SP = -0.0348;
 121              		.loc 1 58 0
 122 0084 774B     		ldr	r3, .L10+24
 123 0086 3B63     		str	r3, [r7, #48]
  59:.\mainLoop.c  **** 				float POLY_X1_SP = 0.605;
 124              		.loc 1 59 0
 125 0088 774B     		ldr	r3, .L10+28
 126 008a FB62     		str	r3, [r7, #44]
  60:.\mainLoop.c  **** 				float POLY_X0_SP = 0.2614;
 127              		.loc 1 60 0
 128 008c 774B     		ldr	r3, .L10+32
 129 008e BB62     		str	r3, [r7, #40]
  61:.\mainLoop.c  **** 
  62:.\mainLoop.c  **** 				float POLY_X2_LP = -0.0177;
 130              		.loc 1 62 0
 131 0090 774B     		ldr	r3, .L10+36
 132 0092 7B62     		str	r3, [r7, #36]
  63:.\mainLoop.c  **** 				float POLY_X1_LP = 1.0182;			
 133              		.loc 1 63 0
 134 0094 774B     		ldr	r3, .L10+40
 135 0096 3B62     		str	r3, [r7, #32]
  64:.\mainLoop.c  **** 				float lpoSP = ((float)SPdata)/((float)SAMPLING_WINDOW_COUNT/100);
 136              		.loc 1 64 0
 137 0098 774B     		ldr	r3, .L10+44
 138 009a 1B68     		ldr	r3, [r3]
 139 009c 181C     		mov	r0, r3
 140 009e FFF7FEFF 		bl	__aeabi_ui2f
 141 00a2 031C     		add	r3, r0, #0
 142 00a4 181C     		add	r0, r3, #0
 143 00a6 7549     		ldr	r1, .L10+48
 144 00a8 FFF7FEFF 		bl	__aeabi_fdiv
 145 00ac 031C     		add	r3, r0, #0
 146 00ae FB61     		str	r3, [r7, #28]
  65:.\mainLoop.c  **** 				float lpoLP = ((float)LPdata)/((float)SAMPLING_WINDOW_COUNT/100);
 147              		.loc 1 65 0
 148 00b0 734B     		ldr	r3, .L10+52
 149 00b2 1B68     		ldr	r3, [r3]
 150 00b4 181C     		mov	r0, r3
 151 00b6 FFF7FEFF 		bl	__aeabi_ui2f
 152 00ba 031C     		add	r3, r0, #0
 153 00bc 181C     		add	r0, r3, #0
 154 00be 6F49     		ldr	r1, .L10+48
 155 00c0 FFF7FEFF 		bl	__aeabi_fdiv
 156 00c4 031C     		add	r3, r0, #0
 157 00c6 BB61     		str	r3, [r7, #24]
  66:.\mainLoop.c  **** //				float lpoSP = ((float)dustOutput[0])/((float)SAMPLING_WINDOW_COUNT/100);
  67:.\mainLoop.c  **** //				float lpoLP = ((float)dustOutput[1])/((float)SAMPLING_WINDOW_COUNT/100);
  68:.\mainLoop.c  **** 				
  69:.\mainLoop.c  **** 				dataArray[SP_DATA_INDEX] = (lpoSP*lpoSP*lpoSP*POLY_X3_SP)+(lpoSP*lpoSP*POLY_X2_SP)+(lpoSP*POLY_
 158              		.loc 1 69 0
 159 00c8 F869     		ldr	r0, [r7, #28]
ARM GAS  C:\Users\ksoneda\AppData\Local\Temp\cchuVQI7.s 			page 5


 160 00ca F969     		ldr	r1, [r7, #28]
 161 00cc FFF7FEFF 		bl	__aeabi_fmul
 162 00d0 031C     		add	r3, r0, #0
 163 00d2 181C     		add	r0, r3, #0
 164 00d4 F969     		ldr	r1, [r7, #28]
 165 00d6 FFF7FEFF 		bl	__aeabi_fmul
 166 00da 031C     		add	r3, r0, #0
 167 00dc 181C     		add	r0, r3, #0
 168 00de 796B     		ldr	r1, [r7, #52]
 169 00e0 FFF7FEFF 		bl	__aeabi_fmul
 170 00e4 031C     		add	r3, r0, #0
 171 00e6 1C1C     		add	r4, r3, #0
 172 00e8 F869     		ldr	r0, [r7, #28]
 173 00ea F969     		ldr	r1, [r7, #28]
 174 00ec FFF7FEFF 		bl	__aeabi_fmul
 175 00f0 031C     		add	r3, r0, #0
 176 00f2 181C     		add	r0, r3, #0
 177 00f4 396B     		ldr	r1, [r7, #48]
 178 00f6 FFF7FEFF 		bl	__aeabi_fmul
 179 00fa 031C     		add	r3, r0, #0
 180 00fc 201C     		add	r0, r4, #0
 181 00fe 191C     		add	r1, r3, #0
 182 0100 FFF7FEFF 		bl	__aeabi_fadd
 183 0104 031C     		add	r3, r0, #0
 184 0106 1C1C     		add	r4, r3, #0
 185 0108 F869     		ldr	r0, [r7, #28]
 186 010a F96A     		ldr	r1, [r7, #44]
 187 010c FFF7FEFF 		bl	__aeabi_fmul
 188 0110 031C     		add	r3, r0, #0
 189 0112 201C     		add	r0, r4, #0
 190 0114 191C     		add	r1, r3, #0
 191 0116 FFF7FEFF 		bl	__aeabi_fadd
 192 011a 031C     		add	r3, r0, #0
 193 011c 181C     		add	r0, r3, #0
 194 011e B96A     		ldr	r1, [r7, #40]
 195 0120 FFF7FEFF 		bl	__aeabi_fadd
 196 0124 031C     		add	r3, r0, #0
 197 0126 1A1C     		add	r2, r3, #0
 198 0128 564B     		ldr	r3, .L10+56
 199 012a 1A60     		str	r2, [r3]
  70:.\mainLoop.c  **** 				//write_to_eeprom(dataArray[SP_DATA_INDEX]);
  71:.\mainLoop.c  **** 				//dataArray[SP_DATA_INDEX] = 1;
  72:.\mainLoop.c  **** 				dataArray[LP_DATA_INDEX] = (lpoLP*lpoLP*POLY_X2_LP)+(lpoLP*POLY_X1_LP);
 200              		.loc 1 72 0
 201 012c B869     		ldr	r0, [r7, #24]
 202 012e B969     		ldr	r1, [r7, #24]
 203 0130 FFF7FEFF 		bl	__aeabi_fmul
 204 0134 031C     		add	r3, r0, #0
 205 0136 181C     		add	r0, r3, #0
 206 0138 796A     		ldr	r1, [r7, #36]
 207 013a FFF7FEFF 		bl	__aeabi_fmul
 208 013e 031C     		add	r3, r0, #0
 209 0140 1C1C     		add	r4, r3, #0
 210 0142 B869     		ldr	r0, [r7, #24]
 211 0144 396A     		ldr	r1, [r7, #32]
 212 0146 FFF7FEFF 		bl	__aeabi_fmul
 213 014a 031C     		add	r3, r0, #0
ARM GAS  C:\Users\ksoneda\AppData\Local\Temp\cchuVQI7.s 			page 6


 214 014c 201C     		add	r0, r4, #0
 215 014e 191C     		add	r1, r3, #0
 216 0150 FFF7FEFF 		bl	__aeabi_fadd
 217 0154 031C     		add	r3, r0, #0
 218 0156 1A1C     		add	r2, r3, #0
 219 0158 4A4B     		ldr	r3, .L10+56
 220 015a 5A60     		str	r2, [r3, #4]
  73:.\mainLoop.c  **** 				//write_to_eeprom(dataArray[LP_DATA_INDEX]);
  74:.\mainLoop.c  **** 				currentState = READ_TH_STATE;	
 221              		.loc 1 74 0
 222 015c 3D4B     		ldr	r3, .L10+8
 223 015e 0322     		mov	r2, #3
 224 0160 1A70     		strb	r2, [r3]
 225              	.L7:
 226              	.LBE2:
  75:.\mainLoop.c  **** 			}
  76:.\mainLoop.c  **** 			//break;		
  77:.\mainLoop.c  **** 			#endif
  78:.\mainLoop.c  **** 		
  79:.\mainLoop.c  **** 			#ifdef SI_7020_H
  80:.\mainLoop.c  **** 			case READ_TH_STATE: //--> IDLE or SLEEP
  81:.\mainLoop.c  **** 			{
  82:.\mainLoop.c  **** 				//#ifdef BASEBOARD_IS_ENABLED
  83:.\mainLoop.c  **** 				BLUE_Write(~BLUE_Read());
 227              		.loc 1 83 0
 228 0162 FFF7FEFF 		bl	BLUE_Read
 229 0166 031C     		mov	r3, r0
 230 0168 DB43     		mvn	r3, r3
 231 016a DBB2     		uxtb	r3, r3
 232 016c 181C     		mov	r0, r3
 233 016e FFF7FEFF 		bl	BLUE_Write
  84:.\mainLoop.c  **** 				//#endif
  85:.\mainLoop.c  **** 				dataArray[TEMPERATURE_DATA_INDEX] = MeasureTemperature();
 234              		.loc 1 85 0
 235 0172 FFF7FEFF 		bl	MeasureTemperature
 236 0176 021C     		add	r2, r0, #0
 237 0178 424B     		ldr	r3, .L10+56
 238 017a 9A60     		str	r2, [r3, #8]
  86:.\mainLoop.c  **** 				dataArray[HUMIDITY_DATA_INDEX] = MeasureHumidity();
 239              		.loc 1 86 0
 240 017c FFF7FEFF 		bl	MeasureHumidity
 241 0180 021C     		add	r2, r0, #0
 242 0182 404B     		ldr	r3, .L10+56
 243 0184 DA60     		str	r2, [r3, #12]
  87:.\mainLoop.c  **** 				currentState = READ_CO2_STATE;
 244              		.loc 1 87 0
 245 0186 334B     		ldr	r3, .L10+8
 246 0188 0B22     		mov	r2, #11
 247 018a 1A70     		strb	r2, [r3]
 248              	.L8:
 249              	.LBB3:
  88:.\mainLoop.c  **** 			}
  89:.\mainLoop.c  **** 			//break;
  90:.\mainLoop.c  **** 			#endif
  91:.\mainLoop.c  **** 			
  92:.\mainLoop.c  **** 			#ifdef FUNCTIONS_COZIR_H			
  93:.\mainLoop.c  **** 
ARM GAS  C:\Users\ksoneda\AppData\Local\Temp\cchuVQI7.s 			page 7


  94:.\mainLoop.c  **** 			case READ_CO2_STATE:
  95:.\mainLoop.c  **** 			{			
  96:.\mainLoop.c  **** 				Status_LED_Write(~Status_LED_Read());
 250              		.loc 1 96 0
 251 018c FFF7FEFF 		bl	Status_LED_Read
 252 0190 031C     		mov	r3, r0
 253 0192 DB43     		mvn	r3, r3
 254 0194 DBB2     		uxtb	r3, r3
 255 0196 181C     		mov	r0, r3
 256 0198 FFF7FEFF 		bl	Status_LED_Write
  97:.\mainLoop.c  **** 				
  98:.\mainLoop.c  **** 				//Set Cozir CO2 sensor to active mode before reading
  99:.\mainLoop.c  **** 				uint8 response = 0u;
 257              		.loc 1 99 0
 258 019c 3B1C     		mov	r3, r7
 259 019e 0F33     		add	r3, r3, #15
 260 01a0 0022     		mov	r2, #0
 261 01a2 1A70     		strb	r2, [r3]
 100:.\mainLoop.c  **** 				Cozir_WriteMode(POLLING_MODE,&response);
 262              		.loc 1 100 0
 263 01a4 3B1C     		mov	r3, r7
 264 01a6 0F33     		add	r3, r3, #15
 265 01a8 3220     		mov	r0, #50
 266 01aa 191C     		mov	r1, r3
 267 01ac FFF7FEFF 		bl	Cozir_WriteMode
 101:.\mainLoop.c  **** 				if(response != POLLING_MODE)
 268              		.loc 1 101 0
 269 01b0 3B1C     		mov	r3, r7
 270 01b2 0F33     		add	r3, r3, #15
 271 01b4 1B78     		ldrb	r3, [r3]
 272 01b6 322B     		cmp	r3, #50
 273 01b8 05D0     		beq	.L9
 102:.\mainLoop.c  **** 				{	
 103:.\mainLoop.c  **** 					Cozir_WriteMode(POLLING_MODE,&response);				
 274              		.loc 1 103 0
 275 01ba 3B1C     		mov	r3, r7
 276 01bc 0F33     		add	r3, r3, #15
 277 01be 3220     		mov	r0, #50
 278 01c0 191C     		mov	r1, r3
 279 01c2 FFF7FEFF 		bl	Cozir_WriteMode
 280              	.L9:
 104:.\mainLoop.c  **** 				}
 105:.\mainLoop.c  **** 
 106:.\mainLoop.c  **** 				uint8 digits[5] = {0u,0u,0u,0u,0u};//holds returned CO2 PPM measurement in digit form
 281              		.loc 1 106 0
 282 01c6 3B1C     		mov	r3, r7
 283 01c8 0833     		add	r3, r3, #8
 284 01ca 0022     		mov	r2, #0
 285 01cc 1A70     		strb	r2, [r3]
 286 01ce 3B1C     		mov	r3, r7
 287 01d0 0833     		add	r3, r3, #8
 288 01d2 0022     		mov	r2, #0
 289 01d4 5A70     		strb	r2, [r3, #1]
 290 01d6 3B1C     		mov	r3, r7
 291 01d8 0833     		add	r3, r3, #8
 292 01da 0022     		mov	r2, #0
 293 01dc 9A70     		strb	r2, [r3, #2]
ARM GAS  C:\Users\ksoneda\AppData\Local\Temp\cchuVQI7.s 			page 8


 294 01de 3B1C     		mov	r3, r7
 295 01e0 0833     		add	r3, r3, #8
 296 01e2 0022     		mov	r2, #0
 297 01e4 DA70     		strb	r2, [r3, #3]
 298 01e6 3B1C     		mov	r3, r7
 299 01e8 0833     		add	r3, r3, #8
 300 01ea 0022     		mov	r2, #0
 301 01ec 1A71     		strb	r2, [r3, #4]
 107:.\mainLoop.c  **** 				uint8 *digitsPtr = digits;
 302              		.loc 1 107 0
 303 01ee 3B1C     		mov	r3, r7
 304 01f0 0833     		add	r3, r3, #8
 305 01f2 7B61     		str	r3, [r7, #20]
 108:.\mainLoop.c  **** 				uint8 size;
 109:.\mainLoop.c  **** 				
 110:.\mainLoop.c  **** 				//returns CO2 PPM measurement in digit form
 111:.\mainLoop.c  **** 				ReadCO2(digitsPtr,&size);
 306              		.loc 1 111 0
 307 01f4 7A69     		ldr	r2, [r7, #20]
 308 01f6 FB1D     		add	r3, r7, #7
 309 01f8 101C     		mov	r0, r2
 310 01fa 191C     		mov	r1, r3
 311 01fc FFF7FEFF 		bl	ReadCO2
 112:.\mainLoop.c  **** 				
 113:.\mainLoop.c  **** 				//Convert individual digits of the CO2 PPM measurement into a single uint32 value
 114:.\mainLoop.c  **** 				uint32 convertedVal = ConvertDigitsToU16(digitsPtr,size);
 312              		.loc 1 114 0
 313 0200 FB1D     		add	r3, r7, #7
 314 0202 1B78     		ldrb	r3, [r3]
 315 0204 7A69     		ldr	r2, [r7, #20]
 316 0206 101C     		mov	r0, r2
 317 0208 191C     		mov	r1, r3
 318 020a FFF7FEFF 		bl	ConvertDigitsToU16
 319 020e 031C     		mov	r3, r0
 320 0210 3B61     		str	r3, [r7, #16]
 115:.\mainLoop.c  **** 				
 116:.\mainLoop.c  **** 				//store in global array
 117:.\mainLoop.c  **** 				dataArray[CO2_DATA_INDEX] = (float)convertedVal;
 321              		.loc 1 117 0
 322 0212 3869     		ldr	r0, [r7, #16]
 323 0214 FFF7FEFF 		bl	__aeabi_ui2f
 324 0218 021C     		add	r2, r0, #0
 325 021a 1A4B     		ldr	r3, .L10+56
 326 021c 1A61     		str	r2, [r3, #16]
 118:.\mainLoop.c  **** 				
 119:.\mainLoop.c  **** 				BLUE_Write(LED_OFF);
 327              		.loc 1 119 0
 328 021e 0120     		mov	r0, #1
 329 0220 FFF7FEFF 		bl	BLUE_Write
 120:.\mainLoop.c  **** 				GREEN_Write(LED_OFF);
 330              		.loc 1 120 0
 331 0224 0120     		mov	r0, #1
 332 0226 FFF7FEFF 		bl	GREEN_Write
 121:.\mainLoop.c  **** 				Status_LED_Write(LED_OFF);
 333              		.loc 1 121 0
 334 022a 0120     		mov	r0, #1
 335 022c FFF7FEFF 		bl	Status_LED_Write
ARM GAS  C:\Users\ksoneda\AppData\Local\Temp\cchuVQI7.s 			page 9


 122:.\mainLoop.c  **** 				
 123:.\mainLoop.c  **** 				currentState = IDLE_STATE;
 336              		.loc 1 123 0
 337 0230 084B     		ldr	r3, .L10+8
 338 0232 0122     		mov	r2, #1
 339 0234 1A70     		strb	r2, [r3]
 340              	.L3:
 341              	.LBE3:
 124:.\mainLoop.c  **** 			}
 125:.\mainLoop.c  **** 			//break;
 126:.\mainLoop.c  **** 			#if 0
 127:.\mainLoop.c  **** 			case COZIR_STANDBY_STATE:
 128:.\mainLoop.c  **** 			{				
 129:.\mainLoop.c  **** 				uint8 mode = 0u;
 130:.\mainLoop.c  **** 				currentState = Cozir_WriteMode(COMMAND_MODE,&mode);
 131:.\mainLoop.c  **** 				if(mode != COMMAND_MODE)
 132:.\mainLoop.c  **** 				{
 133:.\mainLoop.c  **** 					Cozir_WriteMode(COMMAND_MODE,&mode);
 134:.\mainLoop.c  **** 					if(mode != COMMAND_MODE)
 135:.\mainLoop.c  **** 					{
 136:.\mainLoop.c  **** 						#ifdef XBEE_IS_ENABLED
 137:.\mainLoop.c  **** 						XBee_PutChar(mode);//test
 138:.\mainLoop.c  **** 						#endif
 139:.\mainLoop.c  **** 					}
 140:.\mainLoop.c  **** 				}
 141:.\mainLoop.c  **** 			}
 142:.\mainLoop.c  **** 			//break;
 143:.\mainLoop.c  **** 			#endif
 144:.\mainLoop.c  **** 			#endif		
 145:.\mainLoop.c  **** 
 146:.\mainLoop.c  **** 			default:
 147:.\mainLoop.c  **** 			{
 148:.\mainLoop.c  **** 				//default handling code(add erro handling code)
 149:.\mainLoop.c  **** 				if(currentState >= (MAX_STATE_VALUE))
 342              		.loc 1 149 0
 343 0236 074B     		ldr	r3, .L10+8
 344 0238 1B78     		ldrb	r3, [r3]
 345 023a 0C2B     		cmp	r3, #12
 346 023c 02D9     		bls	.L1
 150:.\mainLoop.c  **** 				{
 151:.\mainLoop.c  **** 					currentState = IDLE_STATE;
 347              		.loc 1 151 0
 348 023e 054B     		ldr	r3, .L10+8
 349 0240 0122     		mov	r2, #1
 350 0242 1A70     		strb	r2, [r3]
 351              	.L1:
 152:.\mainLoop.c  **** 				}
 153:.\mainLoop.c  **** 			}
 154:.\mainLoop.c  **** 		}//end of switch-case
 155:.\mainLoop.c  **** 	}//if(FALSE == (--wait))
 156:.\mainLoop.c  **** }
 352              		.loc 1 156 0
 353 0244 BD46     		mov	sp, r7
 354 0246 0FB0     		add	sp, sp, #60
 355              		@ sp needed
 356 0248 90BD     		pop	{r4, r7, pc}
 357              	.L11:
ARM GAS  C:\Users\ksoneda\AppData\Local\Temp\cchuVQI7.s 			page 10


 358 024a C046     		.align	2
 359              	.L10:
 360 024c 00000000 		.word	wait
 361 0250 9CFF6300 		.word	6553500
 362 0254 04000000 		.word	currentState.6982
 363 0258 05000000 		.word	nextState.6983
 364 025c 06000000 		.word	currentReadMode.6984
 365 0260 52491D3A 		.word	974997842
 366 0264 728A0EBD 		.word	-1123120526
 367 0268 48E11A3F 		.word	1058726216
 368 026c 39D6853E 		.word	1048958521
 369 0270 97FF90BC 		.word	-1131348073
 370 0274 6154823F 		.word	1065505889
 371 0278 00000000 		.word	SPdata
 372 027c 00BA5B4A 		.word	1247525376
 373 0280 00000000 		.word	LPdata
 374 0284 00000000 		.word	dataArray
 375              		.cfi_endproc
 376              	.LFE35:
 377              		.size	HandleDataCollection, .-HandleDataCollection
 378              		.data
 379              		.type	currentState.6982, %object
 380              		.size	currentState.6982, 1
 381              	currentState.6982:
 382 0004 01       		.byte	1
 383              		.type	nextState.6983, %object
 384              		.size	nextState.6983, 1
 385              	nextState.6983:
 386 0005 03       		.byte	3
 387              		.type	currentReadMode.6984, %object
 388              		.size	currentReadMode.6984, 1
 389              	currentReadMode.6984:
 390 0006 03       		.byte	3
 391 0007 00       		.align	2
 392              		.type	dataPtr.6986, %object
 393              		.size	dataPtr.6986, 4
 394              	dataPtr.6986:
 395 0008 0C000000 		.word	dataBuf.6985
 396              		.align	2
 397              		.type	dataBuf.6985, %object
 398              		.size	dataBuf.6985, 12
 399              	dataBuf.6985:
 400 000c 01000000 		.word	1
 401 0010 01000000 		.word	1
 402 0014 01000000 		.word	1
 403              		.text
 404              	.Letext0:
 405              		.file 2 ".\\Generated_Source\\PSoC4/cytypes.h"
 406              		.file 3 ".\\Generated_Source\\PSoC4/BLE_Stack.h"