ARM GAS  C:\Users\ksoneda\AppData\Local\Temp\ccchKDNO.s 			page 1


   1              		.cpu cortex-m0
   2              		.fpu softvfp
   3              		.eabi_attribute 20, 1
   4              		.eabi_attribute 21, 1
   5              		.eabi_attribute 23, 3
   6              		.eabi_attribute 24, 1
   7              		.eabi_attribute 25, 1
   8              		.eabi_attribute 26, 1
   9              		.eabi_attribute 30, 6
  10              		.eabi_attribute 34, 0
  11              		.eabi_attribute 18, 4
  12              		.code	16
  13              		.file	"main.c"
  14              		.text
  15              	.Ltext0:
  16              		.cfi_sections	.debug_frame
  17              		.section	.text.main,"ax",%progbits
  18              		.align	2
  19              		.global	main
  20              		.code	16
  21              		.thumb_func
  22              		.type	main, %function
  23              	main:
  24              	.LFB35:
  25              		.file 1 ".\\main.c"
   1:.\main.c      **** /* ========================================
   2:.\main.c      ****  *
   3:.\main.c      ****  * Copyright YOUR COMPANY, THE YEAR
   4:.\main.c      ****  * All Rights Reserved
   5:.\main.c      ****  * UNPUBLISHED, LICENSED SOFTWARE.
   6:.\main.c      ****  *
   7:.\main.c      ****  * CONFIDENTIAL AND PROPRIETARY INFORMATION
   8:.\main.c      ****  * WHICH IS THE PROPERTY OF your company.
   9:.\main.c      ****  *
  10:.\main.c      ****  * by Keith Soneda
  11:.\main.c      ****  * UC Davis - EEC136AB - Firmware for Air Quality Monitor - PSOC 4 BLE revision - March 2015
  12:.\main.c      ****  * Overview: Main FOR loop. Reads data from
  13:.\main.c      ****  * 			 array of sensors at a regular interval when a BLE connection has not been established. 
  14:.\main.c      ****  * 			 When a connected device enables notifications, past data will be sent to the connected devic
  15:.\main.c      ****  * Changes: This version lacks EEPROM. So I altered it to just send the last read cycle's data on l
  16:.\main.c      ****  * ========================================
  17:.\main.c      **** */
  18:.\main.c      **** 
  19:.\main.c      **** #include "main.h"
  20:.\main.c      **** 
  21:.\main.c      **** /*'deviceConnected' flag is used by application to know whether a Central device  
  22:.\main.c      **** * has been connected. This is updated in BLE event callback */
  23:.\main.c      **** extern uint8 deviceConnected;
  24:.\main.c      **** 
  25:.\main.c      **** /*'startNotification' flag is set when the central device writes to CCC (Client  
  26:.\main.c      **** * Characteristic Configuration) of the Random Data characteristic to 
  27:.\main.c      **** * enable notifications */
  28:.\main.c      **** extern uint8 startNotification;		
  29:.\main.c      **** 
  30:.\main.c      **** /* 'restartAdvertisement' flag is used to restart advertisement */
  31:.\main.c      **** extern uint8 restartAdvertisement;
  32:.\main.c      ****  
ARM GAS  C:\Users\ksoneda\AppData\Local\Temp\ccchKDNO.s 			page 2


  33:.\main.c      **** //data holding array
  34:.\main.c      **** extern float dataArray[];
  35:.\main.c      **** 
  36:.\main.c      **** int main()
  37:.\main.c      **** {
  26              		.loc 1 37 0
  27              		.cfi_startproc
  28 0000 80B5     		push	{r7, lr}
  29              		.cfi_def_cfa_offset 8
  30              		.cfi_offset 7, -8
  31              		.cfi_offset 14, -4
  32 0002 00AF     		add	r7, sp, #0
  33              		.cfi_def_cfa_register 7
  38:.\main.c      ****     /* Enable global interrupt mask */
  39:.\main.c      **** 	CyGlobalIntEnable;
  34              		.loc 1 39 0
  35              	@ 39 ".\main.c" 1
  36 0004 62B6     		CPSIE   i
  37              	@ 0 "" 2
  40:.\main.c      **** 	/* This function will initialize the system resources such as BLE*/
  41:.\main.c      ****     InitializeDevice();
  38              		.loc 1 41 0
  39              		.code	16
  40 0006 FFF7FEFF 		bl	InitializeDevice
  41              	.L6:
  42:.\main.c      **** 	
  43:.\main.c      **** 	
  44:.\main.c      ****     for(;;)
  45:.\main.c      ****     {
  46:.\main.c      ****         //#ifdef BASEBOARD_IS_ENABLED
  47:.\main.c      **** 		Status_LED_Write(LED_OFF);
  42              		.loc 1 47 0
  43 000a 0120     		mov	r0, #1
  44 000c FFF7FEFF 		bl	Status_LED_Write
  48:.\main.c      **** 		GREEN_Write(LED_OFF);
  45              		.loc 1 48 0
  46 0010 0120     		mov	r0, #1
  47 0012 FFF7FEFF 		bl	GREEN_Write
  49:.\main.c      **** 		BLUE_Write(LED_OFF);
  48              		.loc 1 49 0
  49 0016 0120     		mov	r0, #1
  50 0018 FFF7FEFF 		bl	BLUE_Write
  50:.\main.c      **** 		//#endif
  51:.\main.c      **** 		/*Process Event callback to handle BLE events. The events generated and 
  52:.\main.c      **** 		* used for this application are inside the 'CustomEventHandler' routine*/
  53:.\main.c      **** 		CyBle_ProcessEvents();
  51              		.loc 1 53 0
  52 001c FFF7FEFF 		bl	CyBle_ProcessEvents
  54:.\main.c      **** 		
  55:.\main.c      **** 		#ifdef BLE_BASEBOARD_IS_ENABLED
  56:.\main.c      **** 		/* Function to handle LED status depending on BLE state */
  57:.\main.c      ****         /* Not necessary but useful to determine the state that the device is in. */
  58:.\main.c      **** 		
  59:.\main.c      **** 		HandleStatusLED();
  60:.\main.c      **** 		
  61:.\main.c      **** 		#endif
  62:.\main.c      **** 		
ARM GAS  C:\Users\ksoneda\AppData\Local\Temp\ccchKDNO.s 			page 3


  63:.\main.c      **** 		
  64:.\main.c      **** 		/* Handle random data and CCCD value update only if BLE device is connected */
  65:.\main.c      **** 		if(TRUE == deviceConnected) 
  53              		.loc 1 65 0
  54 0020 0E4B     		ldr	r3, .L7
  55 0022 1B78     		ldrb	r3, [r3]
  56 0024 012B     		cmp	r3, #1
  57 0026 0AD1     		bne	.L2
  66:.\main.c      **** 		{
  67:.\main.c      **** 			/* After the connection, send new connection parameter to the Client device 
  68:.\main.c      **** 			* to run the BLE communication on desired interval. This affects the data rate 
  69:.\main.c      **** 			* and power consumption. High connection interval will have lower data rate but 
  70:.\main.c      **** 			* lower power consumption. Low connection interval will have higher data rate at
  71:.\main.c      **** 			* expense of higher power. This function is called only once per connection. */
  72:.\main.c      **** 			UpdateConnectionParam();
  58              		.loc 1 72 0
  59 0028 FFF7FEFF 		bl	UpdateConnectionParam
  73:.\main.c      **** 			
  74:.\main.c      **** 			/* When the Client Characteristic Configuration descriptor (CCCD) is written
  75:.\main.c      **** 			* by Central device for enabling/disabling notifications, then the same
  76:.\main.c      **** 			* descriptor value has to be explicitly updated in application so that
  77:.\main.c      **** 			* it reflects the correct value when the descriptor is read */
  78:.\main.c      **** 			UpdateNotificationCCCD();			
  60              		.loc 1 78 0
  61 002c FFF7FEFF 		bl	UpdateNotificationCCCD
  79:.\main.c      **** 			
  80:.\main.c      **** 			 /* Send random data when notifications are enabled */
  81:.\main.c      **** 			if(startNotification)
  62              		.loc 1 81 0
  63 0030 0B4B     		ldr	r3, .L7+4
  64 0032 1B78     		ldrb	r3, [r3]
  65 0034 002B     		cmp	r3, #0
  66 0036 04D0     		beq	.L4
  82:.\main.c      **** 			{
  83:.\main.c      **** 				/*Loops through numbers and dynamically changes the random data values when notifications are e
  84:.\main.c      **** 				/*Check for random data change and report to BLE central device*/
  85:.\main.c      **** 					//HandleRandomData(startNotification);
  86:.\main.c      **** 				
  87:.\main.c      **** 
  88:.\main.c      **** 
  89:.\main.c      **** 				/* FUNCTION TO HANDLE READ CYCLE */
  90:.\main.c      **** 				NotifyLastCycleData();
  67              		.loc 1 90 0
  68 0038 FFF7FEFF 		bl	NotifyLastCycleData
  69 003c 01E0     		b	.L4
  70              	.L2:
  91:.\main.c      **** 			}
  92:.\main.c      **** 	
  93:.\main.c      ****         }//if(TRUE == deviceConnected) 
  94:.\main.c      ****         
  95:.\main.c      **** 		else
  96:.\main.c      **** 		{	
  97:.\main.c      **** 			HandleDataCollection();	
  71              		.loc 1 97 0
  72 003e FFF7FEFF 		bl	HandleDataCollection
  73              	.L4:
  98:.\main.c      **** 		}
ARM GAS  C:\Users\ksoneda\AppData\Local\Temp\ccchKDNO.s 			page 4


  99:.\main.c      ****   
 100:.\main.c      ****         if(restartAdvertisement)
  74              		.loc 1 100 0
  75 0042 084B     		ldr	r3, .L7+8
  76 0044 1B78     		ldrb	r3, [r3]
  77 0046 002B     		cmp	r3, #0
  78 0048 06D0     		beq	.L5
 101:.\main.c      **** 	    {
 102:.\main.c      **** 			/* Reset 'restartAdvertisement' flag*/
 103:.\main.c      **** 			restartAdvertisement = FALSE;
  79              		.loc 1 103 0
  80 004a 064B     		ldr	r3, .L7+8
  81 004c 0022     		mov	r2, #0
  82 004e 1A70     		strb	r2, [r3]
 104:.\main.c      **** 			
 105:.\main.c      **** 			/* Start Advertisement and enter Discoverable mode*/
 106:.\main.c      **** 			CyBle_GappStartAdvertisement(CYBLE_ADVERTISING_FAST);	
  83              		.loc 1 106 0
  84 0050 0020     		mov	r0, #0
  85 0052 FFF7FEFF 		bl	CyBle_GappStartAdvertisement
 107:.\main.c      **** 	    }
 108:.\main.c      **** 		
 109:.\main.c      ****         #ifdef ENABLE_LOW_POWER_MODE
 110:.\main.c      **** 		/* Put system to Deep sleep, including BLESS, and wakeup on interrupt. 
 111:.\main.c      **** 		* The source of the interrupt can be either BLESS Link Layer in case of 
 112:.\main.c      **** 		* BLE advertisement and connection or by User Button press during BLE 
 113:.\main.c      **** 		* disconnection */
 114:.\main.c      **** 		HandleLowPowerMode();
 115:.\main.c      **** 	    #endif		
 116:.\main.c      ****      }//for(;;)
  86              		.loc 1 116 0
  87 0056 D8E7     		b	.L6
  88              	.L5:
  89 0058 D7E7     		b	.L6
  90              	.L8:
  91 005a C046     		.align	2
  92              	.L7:
  93 005c 00000000 		.word	deviceConnected
  94 0060 00000000 		.word	startNotification
  95 0064 00000000 		.word	restartAdvertisement
  96              		.cfi_endproc
  97              	.LFE35:
  98              		.size	main, .-main
  99              		.section	.text.InitializeDevice,"ax",%progbits
 100              		.align	2
 101              		.global	InitializeDevice
 102              		.code	16
 103              		.thumb_func
 104              		.type	InitializeDevice, %function
 105              	InitializeDevice:
 106              	.LFB36:
 117:.\main.c      **** }//int main()
 118:.\main.c      **** 
 119:.\main.c      **** /* ---Initialization Function---- */
 120:.\main.c      **** void InitializeDevice(void)
 121:.\main.c      **** {	
 107              		.loc 1 121 0
ARM GAS  C:\Users\ksoneda\AppData\Local\Temp\ccchKDNO.s 			page 5


 108              		.cfi_startproc
 109 0000 80B5     		push	{r7, lr}
 110              		.cfi_def_cfa_offset 8
 111              		.cfi_offset 7, -8
 112              		.cfi_offset 14, -4
 113 0002 00AF     		add	r7, sp, #0
 114              		.cfi_def_cfa_register 7
 122:.\main.c      **** 	/* Start ISRs */
 123:.\main.c      **** 	#ifdef XBEE_IS_ENABLED
 124:.\main.c      **** 	ISR_Xbee_StartEx(XBEE_ISR);
 125:.\main.c      **** 	
 126:.\main.c      **** 	//Initialize Components
 127:.\main.c      **** 	XBee_Start();
 128:.\main.c      **** 	XBee_ClearRxBuffer();
 129:.\main.c      **** 	XBee_ClearTxBuffer();
 130:.\main.c      **** 	#endif
 131:.\main.c      **** 
 132:.\main.c      **** 	#ifdef SI_7020_H
 133:.\main.c      **** 	I2C_1_Start();
 115              		.loc 1 133 0
 116 0004 FFF7FEFF 		bl	I2C_1_Start
 134:.\main.c      **** 	#endif
 135:.\main.c      **** 	
 136:.\main.c      **** 	#ifdef FUNCTIONS_COZIR_H		
 137:.\main.c      **** 	COZIR_Start();
 117              		.loc 1 137 0
 118 0008 FFF7FEFF 		bl	COZIR_Start
 138:.\main.c      **** 	COZIR_SpiUartClearRxBuffer();
 119              		.loc 1 138 0
 120 000c FFF7FEFF 		bl	COZIR_SpiUartClearRxBuffer
 139:.\main.c      **** 	COZIR_SpiUartClearTxBuffer();
 121              		.loc 1 139 0
 122 0010 FFF7FEFF 		bl	COZIR_SpiUartClearTxBuffer
 140:.\main.c      **** 
 141:.\main.c      **** 	//Write COZIR to standby mode
 142:.\main.c      **** //	uint8 response = 0u;
 143:.\main.c      **** //	Cozir_WriteMode(COMMAND_MODE,&response);
 144:.\main.c      **** //	if(response != COMMAND_MODE)
 145:.\main.c      **** //	{	
 146:.\main.c      **** //		Cozir_WriteMode(COMMAND_MODE,&response);	
 147:.\main.c      **** //	}
 148:.\main.c      **** 	#endif
 149:.\main.c      **** 
 150:.\main.c      **** 	/* Start BLE component and register the CustomEventHandler function. This 
 151:.\main.c      **** 	* function exposes the events from BLE component for application use */
 152:.\main.c      **** 	CyBle_Start(CustomEventHandler);					
 123              		.loc 1 152 0
 124 0014 024B     		ldr	r3, .L10
 125 0016 181C     		mov	r0, r3
 126 0018 FFF7FEFF 		bl	CyBle_Start
 153:.\main.c      **** 
 154:.\main.c      **** #ifdef BLE_BASEBOARD_IS_ENABLED
 155:.\main.c      **** 	/* Set drive mode of the status LED pin to Strong*/
 156:.\main.c      **** 	Status_LED_SetDriveMode(Status_LED_DM_STRONG);	
 157:.\main.c      **** 	
 158:.\main.c      ****    /* Start the Button ISR to allow wakeup from sleep */
 159:.\main.c      **** 	isr_button_StartEx(MyISR);
ARM GAS  C:\Users\ksoneda\AppData\Local\Temp\ccchKDNO.s 			page 6


 160:.\main.c      **** 	
 161:.\main.c      **** 	Status_LED_Write(LED_ON);
 162:.\main.c      **** 	GREEN_Write(LED_ON);
 163:.\main.c      **** 	BLUE_Write(LED_ON);
 164:.\main.c      **** 	CyDelay(1000u);
 165:.\main.c      **** #endif
 166:.\main.c      **** }
 127              		.loc 1 166 0
 128 001c BD46     		mov	sp, r7
 129              		@ sp needed
 130 001e 80BD     		pop	{r7, pc}
 131              	.L11:
 132              		.align	2
 133              	.L10:
 134 0020 00000000 		.word	CustomEventHandler
 135              		.cfi_endproc
 136              	.LFE36:
 137              		.size	InitializeDevice, .-InitializeDevice
 138              		.global	__aeabi_f2uiz
 139              		.section	.text.NotifyLastCycleData,"ax",%progbits
 140              		.align	2
 141              		.global	NotifyLastCycleData
 142              		.code	16
 143              		.thumb_func
 144              		.type	NotifyLastCycleData, %function
 145              	NotifyLastCycleData:
 146              	.LFB37:
 167:.\main.c      **** 
 168:.\main.c      **** //Sends last read cycle's data over notifications in order of: 
 169:.\main.c      **** //Small Particle Dust, Large Particle dust, Temperature, Humidity, and CO2
 170:.\main.c      **** //Sends repeatedly when connected BLE device has enabled notifications.
 171:.\main.c      **** void NotifyLastCycleData(void)
 172:.\main.c      **** {
 147              		.loc 1 172 0
 148              		.cfi_startproc
 149 0000 80B5     		push	{r7, lr}
 150              		.cfi_def_cfa_offset 8
 151              		.cfi_offset 7, -8
 152              		.cfi_offset 14, -4
 153 0002 82B0     		sub	sp, sp, #8
 154              		.cfi_def_cfa_offset 16
 155 0004 00AF     		add	r7, sp, #0
 156              		.cfi_def_cfa_register 7
 173:.\main.c      **** 	/* Static variable used as counter for reading the new value */
 174:.\main.c      **** 	static uint16 delayCounter = TRUE;
 175:.\main.c      **** 			
 176:.\main.c      **** 	/* Static variable to store last value */
 177:.\main.c      **** 	static uint8 lastValue = FALSE;
 178:.\main.c      **** 	
 179:.\main.c      **** 	//stores index into data array.
 180:.\main.c      **** 	static uint8 currentIndex = 0;
 181:.\main.c      **** 
 182:.\main.c      **** 	
 183:.\main.c      **** 	/* Check if Counter has reached its counting value */
 184:.\main.c      **** 	if(FALSE == (--delayCounter))			
 157              		.loc 1 184 0
 158 0006 254B     		ldr	r3, .L16
ARM GAS  C:\Users\ksoneda\AppData\Local\Temp\ccchKDNO.s 			page 7


 159 0008 1B88     		ldrh	r3, [r3]
 160 000a 013B     		sub	r3, r3, #1
 161 000c 9AB2     		uxth	r2, r3
 162 000e 234B     		ldr	r3, .L16
 163 0010 1A80     		strh	r2, [r3]
 164 0012 224B     		ldr	r3, .L16
 165 0014 1B88     		ldrh	r3, [r3]
 166 0016 002B     		cmp	r3, #0
 167 0018 3DD1     		bne	.L12
 168              	.LBB2:
 185:.\main.c      **** 	{
 186:.\main.c      **** 		/* Set 'Counter' to the RAND_COUNTER_VALUE. This counter prevents sending 
 187:.\main.c      **** 		   of large number of Random data to BLE Central device */
 188:.\main.c      **** 		delayCounter = 65535;
 169              		.loc 1 188 0
 170 001a 204B     		ldr	r3, .L16
 171 001c 0122     		mov	r2, #1
 172 001e 5242     		neg	r2, r2
 173 0020 1A80     		strh	r2, [r3]
 189:.\main.c      ****         
 190:.\main.c      **** 		uint8 value;
 191:.\main.c      **** 		if(lastValue != (uint8)dataArray[currentIndex])
 174              		.loc 1 191 0
 175 0022 1F4B     		ldr	r3, .L16+4
 176 0024 1B78     		ldrb	r3, [r3]
 177 0026 1A1C     		mov	r2, r3
 178 0028 1E4B     		ldr	r3, .L16+8
 179 002a 9200     		lsl	r2, r2, #2
 180 002c D358     		ldr	r3, [r2, r3]
 181 002e 181C     		add	r0, r3, #0
 182 0030 FFF7FEFF 		bl	__aeabi_f2uiz
 183 0034 031C     		mov	r3, r0
 184 0036 DAB2     		uxtb	r2, r3
 185 0038 1B4B     		ldr	r3, .L16+12
 186 003a 1B78     		ldrb	r3, [r3]
 187 003c 9A42     		cmp	r2, r3
 188 003e 1DD0     		beq	.L14
 192:.\main.c      **** 		{
 193:.\main.c      **** 
 194:.\main.c      **** 		    value = (uint8) dataArray[currentIndex];
 189              		.loc 1 194 0
 190 0040 174B     		ldr	r3, .L16+4
 191 0042 1B78     		ldrb	r3, [r3]
 192 0044 1A1C     		mov	r2, r3
 193 0046 174B     		ldr	r3, .L16+8
 194 0048 9200     		lsl	r2, r2, #2
 195 004a D358     		ldr	r3, [r2, r3]
 196 004c 181C     		add	r0, r3, #0
 197 004e FFF7FEFF 		bl	__aeabi_f2uiz
 198 0052 031C     		mov	r3, r0
 199 0054 DAB2     		uxtb	r2, r3
 200 0056 FB1D     		add	r3, r7, #7
 201 0058 1A70     		strb	r2, [r3]
 195:.\main.c      **** 			
 196:.\main.c      **** 			/* Send the data to BLE central device by notifications*/
 197:.\main.c      **** 		    SendDataOverNotification(&value);
 202              		.loc 1 197 0
ARM GAS  C:\Users\ksoneda\AppData\Local\Temp\ccchKDNO.s 			page 8


 203 005a FB1D     		add	r3, r7, #7
 204 005c 181C     		mov	r0, r3
 205 005e FFF7FEFF 		bl	SendDataOverNotification
 198:.\main.c      **** 		
 199:.\main.c      **** 		    /* Update present random value */
 200:.\main.c      **** 		    lastValue = (uint8)dataArray[currentIndex];
 206              		.loc 1 200 0
 207 0062 0F4B     		ldr	r3, .L16+4
 208 0064 1B78     		ldrb	r3, [r3]
 209 0066 1A1C     		mov	r2, r3
 210 0068 0E4B     		ldr	r3, .L16+8
 211 006a 9200     		lsl	r2, r2, #2
 212 006c D358     		ldr	r3, [r2, r3]
 213 006e 181C     		add	r0, r3, #0
 214 0070 FFF7FEFF 		bl	__aeabi_f2uiz
 215 0074 031C     		mov	r3, r0
 216 0076 DAB2     		uxtb	r2, r3
 217 0078 0B4B     		ldr	r3, .L16+12
 218 007a 1A70     		strb	r2, [r3]
 219              	.L14:
 201:.\main.c      **** 	
 202:.\main.c      **** 		}
 203:.\main.c      **** 		currentIndex+=1;//increment index
 220              		.loc 1 203 0
 221 007c 084B     		ldr	r3, .L16+4
 222 007e 1B78     		ldrb	r3, [r3]
 223 0080 0133     		add	r3, r3, #1
 224 0082 DAB2     		uxtb	r2, r3
 225 0084 064B     		ldr	r3, .L16+4
 226 0086 1A70     		strb	r2, [r3]
 204:.\main.c      **** 		if(currentIndex>4)//if end of data array has been reached, reset index
 227              		.loc 1 204 0
 228 0088 054B     		ldr	r3, .L16+4
 229 008a 1B78     		ldrb	r3, [r3]
 230 008c 042B     		cmp	r3, #4
 231 008e 02D9     		bls	.L12
 205:.\main.c      **** 		{
 206:.\main.c      **** 			currentIndex = 0;
 232              		.loc 1 206 0
 233 0090 034B     		ldr	r3, .L16+4
 234 0092 0022     		mov	r2, #0
 235 0094 1A70     		strb	r2, [r3]
 236              	.L12:
 237              	.LBE2:
 207:.\main.c      **** 		}
 208:.\main.c      **** 	}
 209:.\main.c      **** }//void NotifyLastCycleData(void)
 238              		.loc 1 209 0
 239 0096 BD46     		mov	sp, r7
 240 0098 02B0     		add	sp, sp, #8
 241              		@ sp needed
 242 009a 80BD     		pop	{r7, pc}
 243              	.L17:
 244              		.align	2
 245              	.L16:
 246 009c 00000000 		.word	delayCounter.6988
 247 00a0 00000000 		.word	currentIndex.6990
ARM GAS  C:\Users\ksoneda\AppData\Local\Temp\ccchKDNO.s 			page 9


 248 00a4 00000000 		.word	dataArray
 249 00a8 01000000 		.word	lastValue.6989
 250              		.cfi_endproc
 251              	.LFE37:
 252              		.size	NotifyLastCycleData, .-NotifyLastCycleData
 253              		.data
 254              		.align	1
 255              		.type	delayCounter.6988, %object
 256              		.size	delayCounter.6988, 2
 257              	delayCounter.6988:
 258 0000 0100     		.short	1
 259              		.bss
 260              	currentIndex.6990:
 261 0000 00       		.space	1
 262              	lastValue.6989:
 263 0001 00       		.space	1
 264              		.text
 265              	.Letext0:
 266              		.file 2 ".\\Generated_Source\\PSoC4/cytypes.h"