ARM GAS  C:\Users\ksoneda\AppData\Local\Temp\ccTTTBzS.s 			page 1


   1              		.cpu cortex-m0
   2              		.fpu softvfp
   3              		.eabi_attribute 20, 1
   4              		.eabi_attribute 21, 1
   5              		.eabi_attribute 23, 3
   6              		.eabi_attribute 24, 1
   7              		.eabi_attribute 25, 1
   8              		.eabi_attribute 26, 1
   9              		.eabi_attribute 30, 6
  10              		.eabi_attribute 34, 0
  11              		.eabi_attribute 18, 4
  12              		.code	16
  13              		.file	"myFunctions.c"
  14              		.text
  15              	.Ltext0:
  16              		.cfi_sections	.debug_frame
  17              		.section	.text.LoadNextState,"ax",%progbits
  18              		.align	2
  19              		.global	LoadNextState
  20              		.code	16
  21              		.thumb_func
  22              		.type	LoadNextState, %function
  23              	LoadNextState:
  24              	.LFB35:
  25              		.file 1 ".\\myFunctions.c"
   1:.\myFunctions.c **** /* ========================================
   2:.\myFunctions.c ****  *
   3:.\myFunctions.c ****  * Copyright YOUR COMPANY, THE YEAR
   4:.\myFunctions.c ****  * All Rights Reserved
   5:.\myFunctions.c ****  * UNPUBLISHED, LICENSED SOFTWARE.
   6:.\myFunctions.c ****  *
   7:.\myFunctions.c ****  * CONFIDENTIAL AND PROPRIETARY INFORMATION
   8:.\myFunctions.c ****  * WHICH IS THE PROPERTY OF your company.
   9:.\myFunctions.c ****  *
  10:.\myFunctions.c ****  * by Keith Soneda
  11:.\myFunctions.c ****  * UC Davis - EEC136AB - Firmware for Air Quality Monitor - PSOC 4 BLE revision - March 2015
  12:.\myFunctions.c ****  * Overview: Random Functions
  13:.\myFunctions.c ****  * ========================================
  14:.\myFunctions.c **** */
  15:.\myFunctions.c **** #include "main.h"
  16:.\myFunctions.c **** 
  17:.\myFunctions.c **** #ifdef MY_FUNCTIONS_H
  18:.\myFunctions.c **** //Function for loading next state in mainLoop.c code 
  19:.\myFunctions.c **** 	//(largely pointless now if you remove the IDLE_STATE case from that code hardcode the return stat
  20:.\myFunctions.c **** uint8 LoadNextState(uint8 nextState, uint8 *readMode)
  21:.\myFunctions.c **** {
  26              		.loc 1 21 0
  27              		.cfi_startproc
  28 0000 80B5     		push	{r7, lr}
  29              		.cfi_def_cfa_offset 8
  30              		.cfi_offset 7, -8
  31              		.cfi_offset 14, -4
  32 0002 82B0     		sub	sp, sp, #8
  33              		.cfi_def_cfa_offset 16
  34 0004 00AF     		add	r7, sp, #0
  35              		.cfi_def_cfa_register 7
  36 0006 021C     		mov	r2, r0
ARM GAS  C:\Users\ksoneda\AppData\Local\Temp\ccTTTBzS.s 			page 2


  37 0008 3960     		str	r1, [r7]
  38 000a FB1D     		add	r3, r7, #7
  39 000c 1A70     		strb	r2, [r3]
  22:.\myFunctions.c **** 	switch(nextState)
  40              		.loc 1 22 0
  41 000e FB1D     		add	r3, r7, #7
  42 0010 1B78     		ldrb	r3, [r3]
  43 0012 072B     		cmp	r3, #7
  44 0014 22D8     		bhi	.L2
  45 0016 9A00     		lsl	r2, r3, #2
  46 0018 134B     		ldr	r3, .L11
  47 001a D318     		add	r3, r2, r3
  48 001c 1B68     		ldr	r3, [r3]
  49 001e 9F46     		mov	pc, r3
  50              		.section	.rodata
  51              		.align	2
  52              	.L4:
  53 0000 5C000000 		.word	.L2
  54 0004 20000000 		.word	.L3
  55 0008 5C000000 		.word	.L2
  56 000c 34000000 		.word	.L5
  57 0010 2A000000 		.word	.L6
  58 0014 3E000000 		.word	.L7
  59 0018 52000000 		.word	.L8
  60 001c 48000000 		.word	.L9
  61              		.section	.text.LoadNextState
  62              	.L3:
  23:.\myFunctions.c **** 	{
  24:.\myFunctions.c **** 		case STANDBY_MODE:
  25:.\myFunctions.c **** 		{
  26:.\myFunctions.c **** 			*(readMode) = STANDBY_MODE;
  63              		.loc 1 26 0
  64 0020 3B68     		ldr	r3, [r7]
  65 0022 0122     		mov	r2, #1
  66 0024 1A70     		strb	r2, [r3]
  27:.\myFunctions.c **** 			return IDLE_STATE;
  67              		.loc 1 27 0
  68 0026 0123     		mov	r3, #1
  69 0028 19E0     		b	.L10
  70              	.L6:
  28:.\myFunctions.c **** 		}
  29:.\myFunctions.c **** 		break;
  30:.\myFunctions.c **** 		
  31:.\myFunctions.c **** 		case PERIODIC_MODE:// repeating, with sleep
  32:.\myFunctions.c **** 		{
  33:.\myFunctions.c **** 			*(readMode) = PERIODIC_MODE;
  71              		.loc 1 33 0
  72 002a 3B68     		ldr	r3, [r7]
  73 002c 0422     		mov	r2, #4
  74 002e 1A70     		strb	r2, [r3]
  34:.\myFunctions.c **** 			return READ_DUST_STATE;
  75              		.loc 1 34 0
  76 0030 0223     		mov	r3, #2
  77 0032 14E0     		b	.L10
  78              	.L5:
  35:.\myFunctions.c **** 		}
  36:.\myFunctions.c **** 		break;
ARM GAS  C:\Users\ksoneda\AppData\Local\Temp\ccTTTBzS.s 			page 3


  37:.\myFunctions.c **** 		
  38:.\myFunctions.c **** 		case CONTINUOUS_MODE://repeating
  39:.\myFunctions.c **** 		{
  40:.\myFunctions.c **** 			*(readMode) = CONTINUOUS_MODE;
  79              		.loc 1 40 0
  80 0034 3B68     		ldr	r3, [r7]
  81 0036 0322     		mov	r2, #3
  82 0038 1A70     		strb	r2, [r3]
  41:.\myFunctions.c **** 			return READ_DUST_STATE;
  83              		.loc 1 41 0
  84 003a 0223     		mov	r3, #2
  85 003c 0FE0     		b	.L10
  86              	.L7:
  42:.\myFunctions.c **** 		}
  43:.\myFunctions.c **** 		break;
  44:.\myFunctions.c **** 	
  45:.\myFunctions.c **** 	#ifdef FUNCTIONS_COZIR_H
  46:.\myFunctions.c **** 		case COZIR_STANDBY_MODE:
  47:.\myFunctions.c **** 		{
  48:.\myFunctions.c **** 			nextState = STANDBY_MODE;//test
  87              		.loc 1 48 0
  88 003e FB1D     		add	r3, r7, #7
  89 0040 0122     		mov	r2, #1
  90 0042 1A70     		strb	r2, [r3]
  49:.\myFunctions.c **** 			return COZIR_STANDBY_STATE;
  91              		.loc 1 49 0
  92 0044 0423     		mov	r3, #4
  93 0046 0AE0     		b	.L10
  94              	.L9:
  50:.\myFunctions.c **** 		}
  51:.\myFunctions.c **** 		break;
  52:.\myFunctions.c **** 	
  53:.\myFunctions.c **** 		case READ_CO2_MODE:
  54:.\myFunctions.c **** 		{
  55:.\myFunctions.c **** 			nextState = STANDBY_MODE;//test
  95              		.loc 1 55 0
  96 0048 FB1D     		add	r3, r7, #7
  97 004a 0122     		mov	r2, #1
  98 004c 1A70     		strb	r2, [r3]
  56:.\myFunctions.c **** 			return READ_CO2_STATE;
  99              		.loc 1 56 0
 100 004e 0B23     		mov	r3, #11
 101 0050 05E0     		b	.L10
 102              	.L8:
  57:.\myFunctions.c **** 		}
  58:.\myFunctions.c **** 		break;
  59:.\myFunctions.c **** 	#endif	
  60:.\myFunctions.c **** 		
  61:.\myFunctions.c **** 	#ifdef SI_7020_H
  62:.\myFunctions.c **** 		case TH_MODE:
  63:.\myFunctions.c **** 		{
  64:.\myFunctions.c **** 			nextState = STANDBY_MODE;//test
 103              		.loc 1 64 0
 104 0052 FB1D     		add	r3, r7, #7
 105 0054 0122     		mov	r2, #1
 106 0056 1A70     		strb	r2, [r3]
  65:.\myFunctions.c **** 			return READ_TH_STATE;
ARM GAS  C:\Users\ksoneda\AppData\Local\Temp\ccTTTBzS.s 			page 4


 107              		.loc 1 65 0
 108 0058 0323     		mov	r3, #3
 109 005a 00E0     		b	.L10
 110              	.L2:
  66:.\myFunctions.c **** 		}
  67:.\myFunctions.c **** 		break;
  68:.\myFunctions.c **** 	#endif
  69:.\myFunctions.c **** 		
  70:.\myFunctions.c **** 		default:
  71:.\myFunctions.c **** 		{
  72:.\myFunctions.c **** 			//add error handling code
  73:.\myFunctions.c **** 			if(nextState >= ENDOFRANGE_MODE)
  74:.\myFunctions.c **** 			{
  75:.\myFunctions.c **** 			}
  76:.\myFunctions.c **** 			return IDLE_STATE;
 111              		.loc 1 76 0
 112 005c 0123     		mov	r3, #1
 113              	.L10:
  77:.\myFunctions.c **** 		}
  78:.\myFunctions.c **** 	}//end of switch-case for nextState	
  79:.\myFunctions.c **** }
 114              		.loc 1 79 0
 115 005e 181C     		mov	r0, r3
 116 0060 BD46     		mov	sp, r7
 117 0062 02B0     		add	sp, sp, #8
 118              		@ sp needed
 119 0064 80BD     		pop	{r7, pc}
 120              	.L12:
 121 0066 C046     		.align	2
 122              	.L11:
 123 0068 00000000 		.word	.L4
 124              		.cfi_endproc
 125              	.LFE35:
 126              		.size	LoadNextState, .-LoadNextState
 127              		.section	.text.ConvertDigitsToU16,"ax",%progbits
 128              		.align	2
 129              		.global	ConvertDigitsToU16
 130              		.code	16
 131              		.thumb_func
 132              		.type	ConvertDigitsToU16, %function
 133              	ConvertDigitsToU16:
 134              	.LFB36:
  80:.\myFunctions.c **** 
  81:.\myFunctions.c **** // overview: 	turns array of base 10 digits and stores in base 2 (uint16)
  82:.\myFunctions.c **** // details:		input array format - most significant (index 0) to least significant (index size-1);
  83:.\myFunctions.c **** //				Does not check array.
  84:.\myFunctions.c **** // inputs: 		digits - pointer to array of digits, size - number of digits to process
  85:.\myFunctions.c **** // outputs:		uint16 number
  86:.\myFunctions.c **** // errors: 		doesnt check for Overflow, or non integer characters.
  87:.\myFunctions.c **** uint16 ConvertDigitsToU16(uint8 *digits,uint8 size)
  88:.\myFunctions.c **** {
 135              		.loc 1 88 0
 136              		.cfi_startproc
 137 0000 80B5     		push	{r7, lr}
 138              		.cfi_def_cfa_offset 8
 139              		.cfi_offset 7, -8
 140              		.cfi_offset 14, -4
ARM GAS  C:\Users\ksoneda\AppData\Local\Temp\ccTTTBzS.s 			page 5


 141 0002 84B0     		sub	sp, sp, #16
 142              		.cfi_def_cfa_offset 24
 143 0004 00AF     		add	r7, sp, #0
 144              		.cfi_def_cfa_register 7
 145 0006 7860     		str	r0, [r7, #4]
 146 0008 0A1C     		mov	r2, r1
 147 000a FB1C     		add	r3, r7, #3
 148 000c 1A70     		strb	r2, [r3]
  89:.\myFunctions.c **** 	uint16 number,value = 0u;
 149              		.loc 1 89 0
 150 000e 3B1C     		mov	r3, r7
 151 0010 0C33     		add	r3, r3, #12
 152 0012 0022     		mov	r2, #0
 153 0014 1A80     		strh	r2, [r3]
  90:.\myFunctions.c **** 	uint8 i,j;
  91:.\myFunctions.c **** 	for(i=0u;i<size;++i)
 154              		.loc 1 91 0
 155 0016 3B1C     		mov	r3, r7
 156 0018 0B33     		add	r3, r3, #11
 157 001a 0022     		mov	r2, #0
 158 001c 1A70     		strb	r2, [r3]
 159 001e 3AE0     		b	.L14
 160              	.L17:
  92:.\myFunctions.c **** 	{
  93:.\myFunctions.c **** 		value = *(digits+i);// Start of '0' (48u) to '9' (57u) range.
 161              		.loc 1 93 0
 162 0020 3B1C     		mov	r3, r7
 163 0022 0B33     		add	r3, r3, #11
 164 0024 1B78     		ldrb	r3, [r3]
 165 0026 7A68     		ldr	r2, [r7, #4]
 166 0028 D318     		add	r3, r2, r3
 167 002a 1A78     		ldrb	r2, [r3]
 168 002c 3B1C     		mov	r3, r7
 169 002e 0C33     		add	r3, r3, #12
 170 0030 1A80     		strh	r2, [r3]
  94:.\myFunctions.c **** 		for(j=1u;j<(size-i);++j) //shift digit to correct position in base 10
 171              		.loc 1 94 0
 172 0032 3B1C     		mov	r3, r7
 173 0034 0A33     		add	r3, r3, #10
 174 0036 0122     		mov	r2, #1
 175 0038 1A70     		strb	r2, [r3]
 176 003a 10E0     		b	.L15
 177              	.L16:
  95:.\myFunctions.c **** 		{
  96:.\myFunctions.c **** 			value*=10u;
 178              		.loc 1 96 0 discriminator 2
 179 003c 3A1C     		mov	r2, r7
 180 003e 0C32     		add	r2, r2, #12
 181 0040 3B1C     		mov	r3, r7
 182 0042 0C33     		add	r3, r3, #12
 183 0044 1B88     		ldrh	r3, [r3]
 184 0046 191C     		add	r1, r3, #0
 185 0048 8900     		lsl	r1, r1, #2
 186 004a CB18     		add	r3, r1, r3
 187 004c DB18     		add	r3, r3, r3
 188 004e 1380     		strh	r3, [r2]
  94:.\myFunctions.c **** 		for(j=1u;j<(size-i);++j) //shift digit to correct position in base 10
ARM GAS  C:\Users\ksoneda\AppData\Local\Temp\ccTTTBzS.s 			page 6


 189              		.loc 1 94 0 discriminator 2
 190 0050 3B1C     		mov	r3, r7
 191 0052 0A33     		add	r3, r3, #10
 192 0054 3A1C     		mov	r2, r7
 193 0056 0A32     		add	r2, r2, #10
 194 0058 1278     		ldrb	r2, [r2]
 195 005a 0132     		add	r2, r2, #1
 196 005c 1A70     		strb	r2, [r3]
 197              	.L15:
  94:.\myFunctions.c **** 		for(j=1u;j<(size-i);++j) //shift digit to correct position in base 10
 198              		.loc 1 94 0 is_stmt 0 discriminator 1
 199 005e 3B1C     		mov	r3, r7
 200 0060 0A33     		add	r3, r3, #10
 201 0062 1A78     		ldrb	r2, [r3]
 202 0064 FB1C     		add	r3, r7, #3
 203 0066 1978     		ldrb	r1, [r3]
 204 0068 3B1C     		mov	r3, r7
 205 006a 0B33     		add	r3, r3, #11
 206 006c 1B78     		ldrb	r3, [r3]
 207 006e CB1A     		sub	r3, r1, r3
 208 0070 9A42     		cmp	r2, r3
 209 0072 E3DB     		blt	.L16
  97:.\myFunctions.c **** 		}
  98:.\myFunctions.c **** 
  99:.\myFunctions.c **** 		number+=value;
 210              		.loc 1 99 0 is_stmt 1
 211 0074 3B1C     		mov	r3, r7
 212 0076 0E33     		add	r3, r3, #14
 213 0078 391C     		mov	r1, r7
 214 007a 0E31     		add	r1, r1, #14
 215 007c 3A1C     		mov	r2, r7
 216 007e 0C32     		add	r2, r2, #12
 217 0080 0988     		ldrh	r1, [r1]
 218 0082 1288     		ldrh	r2, [r2]
 219 0084 8A18     		add	r2, r1, r2
 220 0086 1A80     		strh	r2, [r3]
  91:.\myFunctions.c **** 	for(i=0u;i<size;++i)
 221              		.loc 1 91 0
 222 0088 3B1C     		mov	r3, r7
 223 008a 0B33     		add	r3, r3, #11
 224 008c 3A1C     		mov	r2, r7
 225 008e 0B32     		add	r2, r2, #11
 226 0090 1278     		ldrb	r2, [r2]
 227 0092 0132     		add	r2, r2, #1
 228 0094 1A70     		strb	r2, [r3]
 229              	.L14:
  91:.\myFunctions.c **** 	for(i=0u;i<size;++i)
 230              		.loc 1 91 0 is_stmt 0 discriminator 1
 231 0096 3A1C     		mov	r2, r7
 232 0098 0B32     		add	r2, r2, #11
 233 009a FB1C     		add	r3, r7, #3
 234 009c 1278     		ldrb	r2, [r2]
 235 009e 1B78     		ldrb	r3, [r3]
 236 00a0 9A42     		cmp	r2, r3
 237 00a2 BDD3     		bcc	.L17
 100:.\myFunctions.c **** 		//}
 101:.\myFunctions.c **** 	}
ARM GAS  C:\Users\ksoneda\AppData\Local\Temp\ccTTTBzS.s 			page 7


 102:.\myFunctions.c **** 	return number;
 238              		.loc 1 102 0 is_stmt 1
 239 00a4 3B1C     		mov	r3, r7
 240 00a6 0E33     		add	r3, r3, #14
 241 00a8 1B88     		ldrh	r3, [r3]
 103:.\myFunctions.c **** }
 242              		.loc 1 103 0
 243 00aa 181C     		mov	r0, r3
 244 00ac BD46     		mov	sp, r7
 245 00ae 04B0     		add	sp, sp, #16
 246              		@ sp needed
 247 00b0 80BD     		pop	{r7, pc}
 248              		.cfi_endproc
 249              	.LFE36:
 250              		.size	ConvertDigitsToU16, .-ConvertDigitsToU16
 251 00b2 C046     		.text
 252              	.Letext0:
 253              		.file 2 ".\\Generated_Source\\PSoC4/cytypes.h"