ARM GAS  C:\Users\ksoneda\AppData\Local\Temp\ccBc9FWe.s 			page 1


   1              		.cpu cortex-m0
   2              		.fpu softvfp
   3              		.eabi_attribute 20, 1
   4              		.eabi_attribute 21, 1
   5              		.eabi_attribute 23, 3
   6              		.eabi_attribute 24, 1
   7              		.eabi_attribute 25, 1
   8              		.eabi_attribute 26, 1
   9              		.eabi_attribute 30, 6
  10              		.eabi_attribute 34, 0
  11              		.eabi_attribute 18, 4
  12              		.code	16
  13              		.file	"Si7020.c"
  14              		.text
  15              	.Ltext0:
  16              		.cfi_sections	.debug_frame
  17              		.global	__aeabi_i2f
  18              		.global	__aeabi_f2d
  19              		.global	__aeabi_dmul
  20              		.global	__aeabi_ddiv
  21              		.global	__aeabi_dsub
  22              		.global	__aeabi_d2f
  23              		.section	.text.MeasureTemperature,"ax",%progbits
  24              		.align	2
  25              		.global	MeasureTemperature
  26              		.code	16
  27              		.thumb_func
  28              		.type	MeasureTemperature, %function
  29              	MeasureTemperature:
  30              	.LFB35:
  31              		.file 1 ".\\Si7020.c"
   1:.\Si7020.c    **** /* ========================================
   2:.\Si7020.c    ****  *
   3:.\Si7020.c    ****  * Copyright YOUR COMPANY, THE YEAR
   4:.\Si7020.c    ****  * All Rights Reserved
   5:.\Si7020.c    ****  * UNPUBLISHED, LICENSED SOFTWARE.
   6:.\Si7020.c    ****  *
   7:.\Si7020.c    ****  * CONFIDENTIAL AND PROPRIETARY INFORMATION
   8:.\Si7020.c    ****  * WHICH IS THE PROPERTY OF your company.
   9:.\Si7020.c    ****  * Overview: Temperature and Humidity Measurement Code
  10:.\Si7020.c    ****  * ========================================
  11:.\Si7020.c    **** */
  12:.\Si7020.c    **** 
  13:.\Si7020.c    **** 
  14:.\Si7020.c    **** #include "main.h"
  15:.\Si7020.c    **** 
  16:.\Si7020.c    **** #ifdef SI_7020_H
  17:.\Si7020.c    **** float MeasureTemperature(void)
  18:.\Si7020.c    **** {
  32              		.loc 1 18 0
  33              		.cfi_startproc
  34 0000 90B5     		push	{r4, r7, lr}
  35              		.cfi_def_cfa_offset 12
  36              		.cfi_offset 4, -12
  37              		.cfi_offset 7, -8
  38              		.cfi_offset 14, -4
  39 0002 89B0     		sub	sp, sp, #36
ARM GAS  C:\Users\ksoneda\AppData\Local\Temp\ccBc9FWe.s 			page 2


  40              		.cfi_def_cfa_offset 48
  41 0004 00AF     		add	r7, sp, #0
  42              		.cfi_def_cfa_register 7
  19:.\Si7020.c    **** 	 /*Values for read temp*/
  20:.\Si7020.c    **** 	I2C_1_I2CMasterClearStatus();
  43              		.loc 1 20 0
  44 0006 FFF7FEFF 		bl	I2C_1_I2CMasterClearStatus
  21:.\Si7020.c    ****     I2C_1_I2CMasterClearWriteBuf();
  45              		.loc 1 21 0
  46 000a FFF7FEFF 		bl	I2C_1_I2CMasterClearWriteBuf
  22:.\Si7020.c    ****     I2C_1_I2CMasterClearReadBuf();
  47              		.loc 1 22 0
  48 000e FFF7FEFF 		bl	I2C_1_I2CMasterClearReadBuf
  23:.\Si7020.c    ****     uint8 LSB = 0;
  49              		.loc 1 23 0
  50 0012 3B1C     		mov	r3, r7
  51 0014 1F33     		add	r3, r3, #31
  52 0016 0022     		mov	r2, #0
  53 0018 1A70     		strb	r2, [r3]
  24:.\Si7020.c    ****     uint8 MSB = 0;
  54              		.loc 1 24 0
  55 001a 3B1C     		mov	r3, r7
  56 001c 1E33     		add	r3, r3, #30
  57 001e 0022     		mov	r2, #0
  58 0020 1A70     		strb	r2, [r3]
  25:.\Si7020.c    ****     float T_Code = 0;
  59              		.loc 1 25 0
  60 0022 0023     		mov	r3, #0
  61 0024 BB61     		str	r3, [r7, #24]
  26:.\Si7020.c    ****     float temperature = 0;
  62              		.loc 1 26 0
  63 0026 0023     		mov	r3, #0
  64 0028 7B61     		str	r3, [r7, #20]
  27:.\Si7020.c    **** 	
  28:.\Si7020.c    **** 	 /*I2C Commands for capturing temp*/
  29:.\Si7020.c    **** //    uint8 Slave_Addr = 0x40;//for temp
  30:.\Si7020.c    ****     uint8 Write_Buffer[1] = {0};
  65              		.loc 1 30 0
  66 002a 3B1D     		add	r3, r7, #4
  67 002c 0022     		mov	r2, #0
  68 002e 1A70     		strb	r2, [r3]
  31:.\Si7020.c    ****     uint8 Measure_Cmd = 0xE3;//for temp
  69              		.loc 1 31 0
  70 0030 3B1C     		mov	r3, r7
  71 0032 1333     		add	r3, r3, #19
  72 0034 E322     		mov	r2, #227
  73 0036 1A70     		strb	r2, [r3]
  32:.\Si7020.c    **** 	
  33:.\Si7020.c    ****     Write_Buffer[0] = Measure_Cmd;
  74              		.loc 1 33 0
  75 0038 3B1D     		add	r3, r7, #4
  76 003a 3A1C     		mov	r2, r7
  77 003c 1332     		add	r2, r2, #19
  78 003e 1278     		ldrb	r2, [r2]
  79 0040 1A70     		strb	r2, [r3]
  34:.\Si7020.c    **** 	
  35:.\Si7020.c    **** 	 /*Buffer for reading temp values*/
ARM GAS  C:\Users\ksoneda\AppData\Local\Temp\ccBc9FWe.s 			page 3


  36:.\Si7020.c    ****     uint8 Read_Buf[2] = {0,0};//temp
  80              		.loc 1 36 0
  81 0042 3B1C     		mov	r3, r7
  82 0044 0022     		mov	r2, #0
  83 0046 1A70     		strb	r2, [r3]
  84 0048 3B1C     		mov	r3, r7
  85 004a 0022     		mov	r2, #0
  86 004c 5A70     		strb	r2, [r3, #1]
  37:.\Si7020.c    **** 	 /*Read and write values*/
  38:.\Si7020.c    **** 
  39:.\Si7020.c    **** 
  40:.\Si7020.c    ****     uint32 error = I2C_1_I2CMasterWriteBuf(TH_SLAVE_ADDR, Write_Buffer, 1, I2C_1_I2C_MODE_NO_STOP);
  87              		.loc 1 40 0
  88 004e 3B1D     		add	r3, r7, #4
  89 0050 4020     		mov	r0, #64
  90 0052 191C     		mov	r1, r3
  91 0054 0122     		mov	r2, #1
  92 0056 0223     		mov	r3, #2
  93 0058 FFF7FEFF 		bl	I2C_1_I2CMasterWriteBuf
  94 005c 031C     		mov	r3, r0
  95 005e FB60     		str	r3, [r7, #12]
  41:.\Si7020.c    **** 
  42:.\Si7020.c    **** 	while(0u==(I2C_1_I2CMasterStatus()&I2C_1_I2C_MSTR_ERR_LB_NAK))
  96              		.loc 1 42 0
  97 0060 C046     		mov	r8, r8
  98              	.L2:
  99              		.loc 1 42 0 is_stmt 0 discriminator 1
 100 0062 FFF7FEFF 		bl	I2C_1_I2CMasterStatus
 101 0066 021C     		mov	r2, r0
 102 0068 0223     		mov	r3, #2
 103 006a 1340     		and	r3, r2
 104 006c F9D0     		beq	.L2
  43:.\Si7020.c    **** 	{
  44:.\Si7020.c    **** 		//Add code to break loop if unsucessful
  45:.\Si7020.c    **** 	}
  46:.\Si7020.c    **** 	
  47:.\Si7020.c    **** 	uint32 error2 = I2C_1_I2CMasterReadBuf(TH_SLAVE_ADDR, Read_Buf, 2, I2C_1_I2C_MODE_REPEAT_START);
 105              		.loc 1 47 0 is_stmt 1
 106 006e 3B1C     		mov	r3, r7
 107 0070 4020     		mov	r0, #64
 108 0072 191C     		mov	r1, r3
 109 0074 0222     		mov	r2, #2
 110 0076 0123     		mov	r3, #1
 111 0078 FFF7FEFF 		bl	I2C_1_I2CMasterReadBuf
 112 007c 031C     		mov	r3, r0
 113 007e BB60     		str	r3, [r7, #8]
  48:.\Si7020.c    **** 	while(0u ==(I2C_1_I2CMasterStatus() & I2C_1_I2C_MSTAT_RD_CMPLT))
 114              		.loc 1 48 0
 115 0080 C046     		mov	r8, r8
 116              	.L3:
 117              		.loc 1 48 0 is_stmt 0 discriminator 1
 118 0082 FFF7FEFF 		bl	I2C_1_I2CMasterStatus
 119 0086 021C     		mov	r2, r0
 120 0088 0123     		mov	r3, #1
 121 008a 1340     		and	r3, r2
 122 008c F9D0     		beq	.L3
  49:.\Si7020.c    **** 	{
ARM GAS  C:\Users\ksoneda\AppData\Local\Temp\ccBc9FWe.s 			page 4


  50:.\Si7020.c    **** 		//Add code to break loop if unsucessful
  51:.\Si7020.c    **** 	}
  52:.\Si7020.c    **** 	
  53:.\Si7020.c    **** 	LSB = Read_Buf[1];
 123              		.loc 1 53 0 is_stmt 1
 124 008e 3B1C     		mov	r3, r7
 125 0090 1F33     		add	r3, r3, #31
 126 0092 3A1C     		mov	r2, r7
 127 0094 5278     		ldrb	r2, [r2, #1]
 128 0096 1A70     		strb	r2, [r3]
  54:.\Si7020.c    ****     MSB = Read_Buf[0];//temp
 129              		.loc 1 54 0
 130 0098 3B1C     		mov	r3, r7
 131 009a 1E33     		add	r3, r3, #30
 132 009c 3A1C     		mov	r2, r7
 133 009e 1278     		ldrb	r2, [r2]
 134 00a0 1A70     		strb	r2, [r3]
  55:.\Si7020.c    ****     T_Code = MSB*256 + LSB;//LSB = Read_Buf[1]; MSB = Read_Buf[0];
 135              		.loc 1 55 0
 136 00a2 3B1C     		mov	r3, r7
 137 00a4 1E33     		add	r3, r3, #30
 138 00a6 1B78     		ldrb	r3, [r3]
 139 00a8 1A02     		lsl	r2, r3, #8
 140 00aa 3B1C     		mov	r3, r7
 141 00ac 1F33     		add	r3, r3, #31
 142 00ae 1B78     		ldrb	r3, [r3]
 143 00b0 D318     		add	r3, r2, r3
 144 00b2 181C     		mov	r0, r3
 145 00b4 FFF7FEFF 		bl	__aeabi_i2f
 146 00b8 031C     		add	r3, r0, #0
 147 00ba BB61     		str	r3, [r7, #24]
  56:.\Si7020.c    ****     temperature = (((175.72*T_Code)/65536)-46.85);
 148              		.loc 1 56 0
 149 00bc B869     		ldr	r0, [r7, #24]
 150 00be FFF7FEFF 		bl	__aeabi_f2d
 151 00c2 031C     		mov	r3, r0
 152 00c4 0C1C     		mov	r4, r1
 153 00c6 181C     		mov	r0, r3
 154 00c8 211C     		mov	r1, r4
 155 00ca 124B     		ldr	r3, .L5+4
 156 00cc 104A     		ldr	r2, .L5
 157 00ce FFF7FEFF 		bl	__aeabi_dmul
 158 00d2 031C     		mov	r3, r0
 159 00d4 0C1C     		mov	r4, r1
 160 00d6 181C     		mov	r0, r3
 161 00d8 211C     		mov	r1, r4
 162 00da 0F4A     		ldr	r2, .L5+8
 163 00dc 0F4B     		ldr	r3, .L5+12
 164 00de FFF7FEFF 		bl	__aeabi_ddiv
 165 00e2 031C     		mov	r3, r0
 166 00e4 0C1C     		mov	r4, r1
 167 00e6 181C     		mov	r0, r3
 168 00e8 211C     		mov	r1, r4
 169 00ea 0D4A     		ldr	r2, .L5+16
 170 00ec 0D4B     		ldr	r3, .L5+20
 171 00ee FFF7FEFF 		bl	__aeabi_dsub
 172 00f2 031C     		mov	r3, r0
ARM GAS  C:\Users\ksoneda\AppData\Local\Temp\ccBc9FWe.s 			page 5


 173 00f4 0C1C     		mov	r4, r1
 174 00f6 181C     		mov	r0, r3
 175 00f8 211C     		mov	r1, r4
 176 00fa FFF7FEFF 		bl	__aeabi_d2f
 177 00fe 031C     		add	r3, r0, #0
 178 0100 7B61     		str	r3, [r7, #20]
  57:.\Si7020.c    **** 	
  58:.\Si7020.c    **** 	return temperature;
 179              		.loc 1 58 0
 180 0102 7B69     		ldr	r3, [r7, #20]
  59:.\Si7020.c    **** }
 181              		.loc 1 59 0
 182 0104 181C     		add	r0, r3, #0
 183 0106 BD46     		mov	sp, r7
 184 0108 09B0     		add	sp, sp, #36
 185              		@ sp needed
 186 010a 90BD     		pop	{r4, r7, pc}
 187              	.L6:
 188 010c C046C046 		.align	3
 189              	.L5:
 190 0110 D7A3703D 		.word	1030792151
 191 0114 0AF76540 		.word	1080424202
 192 0118 00000000 		.word	0
 193 011c 0000F040 		.word	1089470464
 194 0120 CDCCCCCC 		.word	-858993459
 195 0124 CC6C4740 		.word	1078422732
 196              		.cfi_endproc
 197              	.LFE35:
 198              		.size	MeasureTemperature, .-MeasureTemperature
 199              		.global	__aeabi_fmul
 200              		.global	__aeabi_fdiv
 201              		.global	__aeabi_fsub
 202              		.section	.text.MeasureHumidity,"ax",%progbits
 203              		.align	2
 204              		.global	MeasureHumidity
 205              		.code	16
 206              		.thumb_func
 207              		.type	MeasureHumidity, %function
 208              	MeasureHumidity:
 209              	.LFB36:
  60:.\Si7020.c    **** 
  61:.\Si7020.c    **** float MeasureHumidity(void)
  62:.\Si7020.c    **** {
 210              		.loc 1 62 0
 211              		.cfi_startproc
 212 0000 80B5     		push	{r7, lr}
 213              		.cfi_def_cfa_offset 8
 214              		.cfi_offset 7, -8
 215              		.cfi_offset 14, -4
 216 0002 88B0     		sub	sp, sp, #32
 217              		.cfi_def_cfa_offset 40
 218 0004 00AF     		add	r7, sp, #0
 219              		.cfi_def_cfa_register 7
  63:.\Si7020.c    ****     I2C_1_I2CMasterClearStatus();
 220              		.loc 1 63 0
 221 0006 FFF7FEFF 		bl	I2C_1_I2CMasterClearStatus
  64:.\Si7020.c    **** 	I2C_1_I2CMasterClearWriteBuf();
ARM GAS  C:\Users\ksoneda\AppData\Local\Temp\ccBc9FWe.s 			page 6


 222              		.loc 1 64 0
 223 000a FFF7FEFF 		bl	I2C_1_I2CMasterClearWriteBuf
  65:.\Si7020.c    ****     I2C_1_I2CMasterClearReadBuf(); 
 224              		.loc 1 65 0
 225 000e FFF7FEFF 		bl	I2C_1_I2CMasterClearReadBuf
  66:.\Si7020.c    ****     
  67:.\Si7020.c    ****     /*Values for read humidity*/
  68:.\Si7020.c    ****     uint8 LSB = 0u;
 226              		.loc 1 68 0
 227 0012 3B1C     		mov	r3, r7
 228 0014 1F33     		add	r3, r3, #31
 229 0016 0022     		mov	r2, #0
 230 0018 1A70     		strb	r2, [r3]
  69:.\Si7020.c    ****     uint8 MSB = 0u;
 231              		.loc 1 69 0
 232 001a 3B1C     		mov	r3, r7
 233 001c 1E33     		add	r3, r3, #30
 234 001e 0022     		mov	r2, #0
 235 0020 1A70     		strb	r2, [r3]
  70:.\Si7020.c    ****     float RH_Code = 0;
 236              		.loc 1 70 0
 237 0022 0023     		mov	r3, #0
 238 0024 BB61     		str	r3, [r7, #24]
  71:.\Si7020.c    ****     float humidity = 0;
 239              		.loc 1 71 0
 240 0026 0023     		mov	r3, #0
 241 0028 7B61     		str	r3, [r7, #20]
  72:.\Si7020.c    **** 	
  73:.\Si7020.c    **** 	 /*I2C Commands for capturing humidity*/
  74:.\Si7020.c    **** //    uint8 Slave_Addr = 0x40;//for humid
  75:.\Si7020.c    **** 
  76:.\Si7020.c    ****     uint8 Write_Buffer[1] = {0};
 242              		.loc 1 76 0
 243 002a 3B1D     		add	r3, r7, #4
 244 002c 0022     		mov	r2, #0
 245 002e 1A70     		strb	r2, [r3]
  77:.\Si7020.c    ****     uint8 Measure_Cmd = 0xE5;//for humid
 246              		.loc 1 77 0
 247 0030 3B1C     		mov	r3, r7
 248 0032 1333     		add	r3, r3, #19
 249 0034 E522     		mov	r2, #229
 250 0036 1A70     		strb	r2, [r3]
  78:.\Si7020.c    **** 
  79:.\Si7020.c    ****     Write_Buffer[0] = Measure_Cmd;
 251              		.loc 1 79 0
 252 0038 3B1D     		add	r3, r7, #4
 253 003a 3A1C     		mov	r2, r7
 254 003c 1332     		add	r2, r2, #19
 255 003e 1278     		ldrb	r2, [r2]
 256 0040 1A70     		strb	r2, [r3]
  80:.\Si7020.c    **** 	
  81:.\Si7020.c    **** 	 /*Buffer for reading humidity values*/
  82:.\Si7020.c    ****     uint8 Read_Buf[2] = {0,0};
 257              		.loc 1 82 0
 258 0042 3B1C     		mov	r3, r7
 259 0044 0022     		mov	r2, #0
 260 0046 1A70     		strb	r2, [r3]
ARM GAS  C:\Users\ksoneda\AppData\Local\Temp\ccBc9FWe.s 			page 7


 261 0048 3B1C     		mov	r3, r7
 262 004a 0022     		mov	r2, #0
 263 004c 5A70     		strb	r2, [r3, #1]
  83:.\Si7020.c    **** 
  84:.\Si7020.c    ****     uint32 error = I2C_1_I2CMasterWriteBuf(TH_SLAVE_ADDR, Write_Buffer, 1, I2C_1_I2C_MODE_NO_STOP);
 264              		.loc 1 84 0
 265 004e 3B1D     		add	r3, r7, #4
 266 0050 4020     		mov	r0, #64
 267 0052 191C     		mov	r1, r3
 268 0054 0122     		mov	r2, #1
 269 0056 0223     		mov	r3, #2
 270 0058 FFF7FEFF 		bl	I2C_1_I2CMasterWriteBuf
 271 005c 031C     		mov	r3, r0
 272 005e FB60     		str	r3, [r7, #12]
  85:.\Si7020.c    **** 	while(0u==(I2C_1_I2CMasterStatus()&I2C_1_I2C_MSTR_ERR_LB_NAK))
 273              		.loc 1 85 0
 274 0060 C046     		mov	r8, r8
 275              	.L8:
 276              		.loc 1 85 0 is_stmt 0 discriminator 1
 277 0062 FFF7FEFF 		bl	I2C_1_I2CMasterStatus
 278 0066 021C     		mov	r2, r0
 279 0068 0223     		mov	r3, #2
 280 006a 1340     		and	r3, r2
 281 006c F9D0     		beq	.L8
  86:.\Si7020.c    **** 	{
  87:.\Si7020.c    **** 		//Add code to break loop if unsucessful
  88:.\Si7020.c    **** 	}
  89:.\Si7020.c    **** 
  90:.\Si7020.c    ****     uint32 error2 = I2C_1_I2CMasterReadBuf(TH_SLAVE_ADDR, Read_Buf, 2, I2C_1_I2C_MODE_REPEAT_START)
 282              		.loc 1 90 0 is_stmt 1
 283 006e 3B1C     		mov	r3, r7
 284 0070 4020     		mov	r0, #64
 285 0072 191C     		mov	r1, r3
 286 0074 0222     		mov	r2, #2
 287 0076 0123     		mov	r3, #1
 288 0078 FFF7FEFF 		bl	I2C_1_I2CMasterReadBuf
 289 007c 031C     		mov	r3, r0
 290 007e BB60     		str	r3, [r7, #8]
  91:.\Si7020.c    **** 	while(0u ==(I2C_1_I2CMasterStatus() & I2C_1_I2C_MSTAT_RD_CMPLT))
 291              		.loc 1 91 0
 292 0080 C046     		mov	r8, r8
 293              	.L9:
 294              		.loc 1 91 0 is_stmt 0 discriminator 1
 295 0082 FFF7FEFF 		bl	I2C_1_I2CMasterStatus
 296 0086 021C     		mov	r2, r0
 297 0088 0123     		mov	r3, #1
 298 008a 1340     		and	r3, r2
 299 008c F9D0     		beq	.L9
  92:.\Si7020.c    **** 	{
  93:.\Si7020.c    **** 		//Add code to break loop if unsucessful
  94:.\Si7020.c    **** 	}
  95:.\Si7020.c    **** 	
  96:.\Si7020.c    **** 	LSB = Read_Buf[1];
 300              		.loc 1 96 0 is_stmt 1
 301 008e 3B1C     		mov	r3, r7
 302 0090 1F33     		add	r3, r3, #31
 303 0092 3A1C     		mov	r2, r7
ARM GAS  C:\Users\ksoneda\AppData\Local\Temp\ccBc9FWe.s 			page 8


 304 0094 5278     		ldrb	r2, [r2, #1]
 305 0096 1A70     		strb	r2, [r3]
  97:.\Si7020.c    ****     MSB = Read_Buf[0];
 306              		.loc 1 97 0
 307 0098 3B1C     		mov	r3, r7
 308 009a 1E33     		add	r3, r3, #30
 309 009c 3A1C     		mov	r2, r7
 310 009e 1278     		ldrb	r2, [r2]
 311 00a0 1A70     		strb	r2, [r3]
  98:.\Si7020.c    ****     RH_Code = MSB*256 + LSB;
 312              		.loc 1 98 0
 313 00a2 3B1C     		mov	r3, r7
 314 00a4 1E33     		add	r3, r3, #30
 315 00a6 1B78     		ldrb	r3, [r3]
 316 00a8 1A02     		lsl	r2, r3, #8
 317 00aa 3B1C     		mov	r3, r7
 318 00ac 1F33     		add	r3, r3, #31
 319 00ae 1B78     		ldrb	r3, [r3]
 320 00b0 D318     		add	r3, r2, r3
 321 00b2 181C     		mov	r0, r3
 322 00b4 FFF7FEFF 		bl	__aeabi_i2f
 323 00b8 031C     		add	r3, r0, #0
 324 00ba BB61     		str	r3, [r7, #24]
  99:.\Si7020.c    ****     humidity = (((125*RH_Code)/65536)-6);
 325              		.loc 1 99 0
 326 00bc B869     		ldr	r0, [r7, #24]
 327 00be 0A49     		ldr	r1, .L11
 328 00c0 FFF7FEFF 		bl	__aeabi_fmul
 329 00c4 031C     		add	r3, r0, #0
 330 00c6 181C     		add	r0, r3, #0
 331 00c8 8F21     		mov	r1, #143
 332 00ca C905     		lsl	r1, r1, #23
 333 00cc FFF7FEFF 		bl	__aeabi_fdiv
 334 00d0 031C     		add	r3, r0, #0
 335 00d2 181C     		add	r0, r3, #0
 336 00d4 0549     		ldr	r1, .L11+4
 337 00d6 FFF7FEFF 		bl	__aeabi_fsub
 338 00da 031C     		add	r3, r0, #0
 339 00dc 7B61     		str	r3, [r7, #20]
 100:.\Si7020.c    **** 
 101:.\Si7020.c    **** 	return humidity;
 340              		.loc 1 101 0
 341 00de 7B69     		ldr	r3, [r7, #20]
 102:.\Si7020.c    **** }
 342              		.loc 1 102 0
 343 00e0 181C     		add	r0, r3, #0
 344 00e2 BD46     		mov	sp, r7
 345 00e4 08B0     		add	sp, sp, #32
 346              		@ sp needed
 347 00e6 80BD     		pop	{r7, pc}
 348              	.L12:
 349              		.align	2
 350              	.L11:
 351 00e8 0000FA42 		.word	1123680256
 352 00ec 0000C040 		.word	1086324736
 353              		.cfi_endproc
 354              	.LFE36:
ARM GAS  C:\Users\ksoneda\AppData\Local\Temp\ccBc9FWe.s 			page 9


 355              		.size	MeasureHumidity, .-MeasureHumidity
 356              		.text
 357              	.Letext0:
 358              		.file 2 ".\\Generated_Source\\PSoC4/cytypes.h"